ARM GAS  /var/folders/hg/yd2wmrcs4nb8mlpb2c051fww0000gn/T//cc23ui6t.s 			page 1


   1              		.cpu cortex-m4
   2              		.eabi_attribute 27, 1
   3              		.eabi_attribute 28, 1
   4              		.eabi_attribute 20, 1
   5              		.eabi_attribute 21, 1
   6              		.eabi_attribute 23, 3
   7              		.eabi_attribute 24, 1
   8              		.eabi_attribute 25, 1
   9              		.eabi_attribute 26, 1
  10              		.eabi_attribute 30, 1
  11              		.eabi_attribute 34, 1
  12              		.eabi_attribute 18, 4
  13              		.file	"MCUSetup.c"
  14              		.text
  15              	.Ltext0:
  16              		.cfi_sections	.debug_frame
  17              		.section	.text.MX_GPIO_Init,"ax",%progbits
  18              		.align	1
  19              		.arch armv7e-m
  20              		.syntax unified
  21              		.thumb
  22              		.thumb_func
  23              		.fpu fpv4-sp-d16
  25              	MX_GPIO_Init:
  26              	.LFB133:
  27              		.file 1 "Src/MCUSetup.c"
   1:Src/MCUSetup.c **** #include "MCUSetup.h"
   2:Src/MCUSetup.c **** #include "main.h"
   3:Src/MCUSetup.c **** 
   4:Src/MCUSetup.c **** void SystemClock_Config(void) {
   5:Src/MCUSetup.c ****   RCC_OscInitTypeDef RCC_OscInitStruct = {0};
   6:Src/MCUSetup.c ****   RCC_ClkInitTypeDef RCC_ClkInitStruct = {0};
   7:Src/MCUSetup.c ****   RCC_PeriphCLKInitTypeDef PeriphClkInit = {0};
   8:Src/MCUSetup.c **** 
   9:Src/MCUSetup.c ****   /**Initializes the CPU, AHB and APB busses clocks
  10:Src/MCUSetup.c ****    */
  11:Src/MCUSetup.c ****   RCC_OscInitStruct.OscillatorType = RCC_OSCILLATORTYPE_HSI;
  12:Src/MCUSetup.c ****   RCC_OscInitStruct.HSIState = RCC_HSI_ON;
  13:Src/MCUSetup.c ****   RCC_OscInitStruct.HSICalibrationValue = RCC_HSICALIBRATION_DEFAULT;
  14:Src/MCUSetup.c ****   RCC_OscInitStruct.PLL.PLLState = RCC_PLL_ON;
  15:Src/MCUSetup.c ****   RCC_OscInitStruct.PLL.PLLSource = RCC_PLLSOURCE_HSI;
  16:Src/MCUSetup.c ****   RCC_OscInitStruct.PLL.PLLMUL = RCC_PLL_MUL16;
  17:Src/MCUSetup.c ****   if (HAL_RCC_OscConfig(&RCC_OscInitStruct) != HAL_OK) {
  18:Src/MCUSetup.c ****     Error_Handler();
  19:Src/MCUSetup.c ****   }
  20:Src/MCUSetup.c ****   /**Initializes the CPU, AHB and APB busses clocks
  21:Src/MCUSetup.c ****    */
  22:Src/MCUSetup.c ****   RCC_ClkInitStruct.ClockType = RCC_CLOCKTYPE_HCLK | RCC_CLOCKTYPE_SYSCLK |
  23:Src/MCUSetup.c ****                                 RCC_CLOCKTYPE_PCLK1 | RCC_CLOCKTYPE_PCLK2;
  24:Src/MCUSetup.c ****   RCC_ClkInitStruct.SYSCLKSource = RCC_SYSCLKSOURCE_PLLCLK;
  25:Src/MCUSetup.c ****   RCC_ClkInitStruct.AHBCLKDivider = RCC_SYSCLK_DIV1;
  26:Src/MCUSetup.c ****   RCC_ClkInitStruct.APB1CLKDivider = RCC_HCLK_DIV2;
  27:Src/MCUSetup.c ****   RCC_ClkInitStruct.APB2CLKDivider = RCC_HCLK_DIV1;
  28:Src/MCUSetup.c **** 
  29:Src/MCUSetup.c ****   if (HAL_RCC_ClockConfig(&RCC_ClkInitStruct, FLASH_LATENCY_2) != HAL_OK) {
  30:Src/MCUSetup.c ****     Error_Handler();
  31:Src/MCUSetup.c ****   }
ARM GAS  /var/folders/hg/yd2wmrcs4nb8mlpb2c051fww0000gn/T//cc23ui6t.s 			page 2


  32:Src/MCUSetup.c ****   PeriphClkInit.PeriphClockSelection =
  33:Src/MCUSetup.c ****       RCC_PERIPHCLK_USART1 | RCC_PERIPHCLK_ADC12 | RCC_PERIPHCLK_ADC34;
  34:Src/MCUSetup.c ****   PeriphClkInit.Usart1ClockSelection = RCC_USART1CLKSOURCE_PCLK2;
  35:Src/MCUSetup.c ****   PeriphClkInit.Adc12ClockSelection = RCC_ADC12PLLCLK_DIV1;
  36:Src/MCUSetup.c ****   PeriphClkInit.Adc34ClockSelection = RCC_ADC34PLLCLK_DIV1;
  37:Src/MCUSetup.c ****   if (HAL_RCCEx_PeriphCLKConfig(&PeriphClkInit) != HAL_OK) {
  38:Src/MCUSetup.c ****     Error_Handler();
  39:Src/MCUSetup.c ****   }
  40:Src/MCUSetup.c **** }
  41:Src/MCUSetup.c **** 
  42:Src/MCUSetup.c **** /**
  43:Src/MCUSetup.c ****  * @brief ADC1 Initialization Function
  44:Src/MCUSetup.c ****  * @param None
  45:Src/MCUSetup.c ****  * @retval None
  46:Src/MCUSetup.c ****  */
  47:Src/MCUSetup.c **** static void MX_ADC1_Init(void) {
  48:Src/MCUSetup.c **** 
  49:Src/MCUSetup.c ****   /* USER CODE BEGIN ADC1_Init 0 */
  50:Src/MCUSetup.c **** 
  51:Src/MCUSetup.c ****   /* USER CODE END ADC1_Init 0 */
  52:Src/MCUSetup.c **** 
  53:Src/MCUSetup.c ****   ADC_MultiModeTypeDef multimode = {0};
  54:Src/MCUSetup.c ****   ADC_ChannelConfTypeDef sConfig = {0};
  55:Src/MCUSetup.c **** 
  56:Src/MCUSetup.c ****   /* USER CODE BEGIN ADC1_Init 1 */
  57:Src/MCUSetup.c **** 
  58:Src/MCUSetup.c ****   /* USER CODE END ADC1_Init 1 */
  59:Src/MCUSetup.c ****   /**Common config
  60:Src/MCUSetup.c ****    */
  61:Src/MCUSetup.c ****   hadc1.Instance = ADC1;
  62:Src/MCUSetup.c ****   hadc1.Init.ClockPrescaler = ADC_CLOCK_ASYNC_DIV1;
  63:Src/MCUSetup.c ****   hadc1.Init.Resolution = ADC_RESOLUTION_12B;
  64:Src/MCUSetup.c ****   hadc1.Init.ScanConvMode = ADC_SCAN_DISABLE;
  65:Src/MCUSetup.c ****   hadc1.Init.ContinuousConvMode = DISABLE;
  66:Src/MCUSetup.c ****   hadc1.Init.DiscontinuousConvMode = DISABLE;
  67:Src/MCUSetup.c ****   hadc1.Init.ExternalTrigConvEdge = ADC_EXTERNALTRIGCONVEDGE_NONE;
  68:Src/MCUSetup.c ****   hadc1.Init.ExternalTrigConv = ADC_SOFTWARE_START;
  69:Src/MCUSetup.c ****   hadc1.Init.DataAlign = ADC_DATAALIGN_RIGHT;
  70:Src/MCUSetup.c ****   hadc1.Init.NbrOfConversion = 1;
  71:Src/MCUSetup.c ****   hadc1.Init.DMAContinuousRequests = DISABLE;
  72:Src/MCUSetup.c ****   hadc1.Init.EOCSelection = ADC_EOC_SINGLE_CONV;
  73:Src/MCUSetup.c ****   hadc1.Init.LowPowerAutoWait = DISABLE;
  74:Src/MCUSetup.c ****   hadc1.Init.Overrun = ADC_OVR_DATA_OVERWRITTEN;
  75:Src/MCUSetup.c ****   if (HAL_ADC_Init(&hadc1) != HAL_OK) {
  76:Src/MCUSetup.c ****     Error_Handler();
  77:Src/MCUSetup.c ****   }
  78:Src/MCUSetup.c ****   /**Configure the ADC multi-mode
  79:Src/MCUSetup.c ****    */
  80:Src/MCUSetup.c ****   multimode.Mode = ADC_MODE_INDEPENDENT;
  81:Src/MCUSetup.c ****   if (HAL_ADCEx_MultiModeConfigChannel(&hadc1, &multimode) != HAL_OK) {
  82:Src/MCUSetup.c ****     Error_Handler();
  83:Src/MCUSetup.c ****   }
  84:Src/MCUSetup.c ****   /**Configure Regular Channel
  85:Src/MCUSetup.c ****    */
  86:Src/MCUSetup.c ****   sConfig.Channel = ADC_CHANNEL_1;
  87:Src/MCUSetup.c ****   sConfig.Rank = ADC_REGULAR_RANK_1;
  88:Src/MCUSetup.c ****   sConfig.SingleDiff = ADC_SINGLE_ENDED;
ARM GAS  /var/folders/hg/yd2wmrcs4nb8mlpb2c051fww0000gn/T//cc23ui6t.s 			page 3


  89:Src/MCUSetup.c ****   sConfig.SamplingTime = ADC_SAMPLETIME_1CYCLE_5;
  90:Src/MCUSetup.c ****   sConfig.OffsetNumber = ADC_OFFSET_NONE;
  91:Src/MCUSetup.c ****   sConfig.Offset = 0;
  92:Src/MCUSetup.c ****   if (HAL_ADC_ConfigChannel(&hadc1, &sConfig) != HAL_OK) {
  93:Src/MCUSetup.c ****     Error_Handler();
  94:Src/MCUSetup.c ****   }
  95:Src/MCUSetup.c ****   /* USER CODE BEGIN ADC1_Init 2 */
  96:Src/MCUSetup.c **** 
  97:Src/MCUSetup.c ****   /* USER CODE END ADC1_Init 2 */
  98:Src/MCUSetup.c **** }
  99:Src/MCUSetup.c **** 
 100:Src/MCUSetup.c **** /**
 101:Src/MCUSetup.c ****  * @brief ADC2 Initialization Function
 102:Src/MCUSetup.c ****  * @param None
 103:Src/MCUSetup.c ****  * @retval None
 104:Src/MCUSetup.c ****  */
 105:Src/MCUSetup.c **** static void MX_ADC2_Init(void) {
 106:Src/MCUSetup.c **** 
 107:Src/MCUSetup.c ****   /* USER CODE BEGIN ADC2_Init 0 */
 108:Src/MCUSetup.c **** 
 109:Src/MCUSetup.c ****   /* USER CODE END ADC2_Init 0 */
 110:Src/MCUSetup.c **** 
 111:Src/MCUSetup.c ****   ADC_ChannelConfTypeDef sConfig = {0};
 112:Src/MCUSetup.c **** 
 113:Src/MCUSetup.c ****   /* USER CODE BEGIN ADC2_Init 1 */
 114:Src/MCUSetup.c **** 
 115:Src/MCUSetup.c ****   /* USER CODE END ADC2_Init 1 */
 116:Src/MCUSetup.c ****   /**Common config
 117:Src/MCUSetup.c ****    */
 118:Src/MCUSetup.c ****   hadc2.Instance = ADC2;
 119:Src/MCUSetup.c ****   hadc2.Init.ClockPrescaler = ADC_CLOCK_ASYNC_DIV1;
 120:Src/MCUSetup.c ****   hadc2.Init.Resolution = ADC_RESOLUTION_12B;
 121:Src/MCUSetup.c ****   hadc2.Init.ScanConvMode = ADC_SCAN_DISABLE;
 122:Src/MCUSetup.c ****   hadc2.Init.ContinuousConvMode = DISABLE;
 123:Src/MCUSetup.c ****   hadc2.Init.DiscontinuousConvMode = DISABLE;
 124:Src/MCUSetup.c ****   hadc2.Init.ExternalTrigConvEdge = ADC_EXTERNALTRIGCONVEDGE_NONE;
 125:Src/MCUSetup.c ****   hadc2.Init.ExternalTrigConv = ADC_SOFTWARE_START;
 126:Src/MCUSetup.c ****   hadc2.Init.DataAlign = ADC_DATAALIGN_RIGHT;
 127:Src/MCUSetup.c ****   hadc2.Init.NbrOfConversion = 1;
 128:Src/MCUSetup.c ****   hadc2.Init.DMAContinuousRequests = DISABLE;
 129:Src/MCUSetup.c ****   hadc2.Init.EOCSelection = ADC_EOC_SINGLE_CONV;
 130:Src/MCUSetup.c ****   hadc2.Init.LowPowerAutoWait = DISABLE;
 131:Src/MCUSetup.c ****   hadc2.Init.Overrun = ADC_OVR_DATA_OVERWRITTEN;
 132:Src/MCUSetup.c ****   if (HAL_ADC_Init(&hadc2) != HAL_OK) {
 133:Src/MCUSetup.c ****     Error_Handler();
 134:Src/MCUSetup.c ****   }
 135:Src/MCUSetup.c ****   /**Configure Regular Channel
 136:Src/MCUSetup.c ****    */
 137:Src/MCUSetup.c ****   sConfig.Channel = ADC_CHANNEL_2;
 138:Src/MCUSetup.c ****   sConfig.Rank = ADC_REGULAR_RANK_1;
 139:Src/MCUSetup.c ****   sConfig.SingleDiff = ADC_SINGLE_ENDED;
 140:Src/MCUSetup.c ****   sConfig.SamplingTime = ADC_SAMPLETIME_1CYCLE_5;
 141:Src/MCUSetup.c ****   sConfig.OffsetNumber = ADC_OFFSET_NONE;
 142:Src/MCUSetup.c ****   sConfig.Offset = 0;
 143:Src/MCUSetup.c ****   if (HAL_ADC_ConfigChannel(&hadc2, &sConfig) != HAL_OK) {
 144:Src/MCUSetup.c ****     Error_Handler();
 145:Src/MCUSetup.c ****   }
ARM GAS  /var/folders/hg/yd2wmrcs4nb8mlpb2c051fww0000gn/T//cc23ui6t.s 			page 4


 146:Src/MCUSetup.c ****   /* USER CODE BEGIN ADC2_Init 2 */
 147:Src/MCUSetup.c **** 
 148:Src/MCUSetup.c ****   /* USER CODE END ADC2_Init 2 */
 149:Src/MCUSetup.c **** }
 150:Src/MCUSetup.c **** 
 151:Src/MCUSetup.c **** /**
 152:Src/MCUSetup.c ****  * @brief ADC3 Initialization Function
 153:Src/MCUSetup.c ****  * @param None
 154:Src/MCUSetup.c ****  * @retval None
 155:Src/MCUSetup.c ****  */
 156:Src/MCUSetup.c **** static void MX_ADC3_Init(void) {
 157:Src/MCUSetup.c **** 
 158:Src/MCUSetup.c ****   /* USER CODE BEGIN ADC3_Init 0 */
 159:Src/MCUSetup.c **** 
 160:Src/MCUSetup.c ****   /* USER CODE END ADC3_Init 0 */
 161:Src/MCUSetup.c **** 
 162:Src/MCUSetup.c ****   ADC_MultiModeTypeDef multimode = {0};
 163:Src/MCUSetup.c ****   ADC_ChannelConfTypeDef sConfig = {0};
 164:Src/MCUSetup.c **** 
 165:Src/MCUSetup.c ****   /* USER CODE BEGIN ADC3_Init 1 */
 166:Src/MCUSetup.c **** 
 167:Src/MCUSetup.c ****   /* USER CODE END ADC3_Init 1 */
 168:Src/MCUSetup.c ****   /**Common config
 169:Src/MCUSetup.c ****    */
 170:Src/MCUSetup.c ****   hadc3.Instance = ADC3;
 171:Src/MCUSetup.c ****   hadc3.Init.ClockPrescaler = ADC_CLOCK_ASYNC_DIV1;
 172:Src/MCUSetup.c ****   hadc3.Init.Resolution = ADC_RESOLUTION_12B;
 173:Src/MCUSetup.c ****   hadc3.Init.ScanConvMode = ADC_SCAN_DISABLE;
 174:Src/MCUSetup.c ****   hadc3.Init.ContinuousConvMode = DISABLE;
 175:Src/MCUSetup.c ****   hadc3.Init.DiscontinuousConvMode = DISABLE;
 176:Src/MCUSetup.c ****   hadc3.Init.ExternalTrigConvEdge = ADC_EXTERNALTRIGCONVEDGE_NONE;
 177:Src/MCUSetup.c ****   hadc3.Init.ExternalTrigConv = ADC_SOFTWARE_START;
 178:Src/MCUSetup.c ****   hadc3.Init.DataAlign = ADC_DATAALIGN_RIGHT;
 179:Src/MCUSetup.c ****   hadc3.Init.NbrOfConversion = 1;
 180:Src/MCUSetup.c ****   hadc3.Init.DMAContinuousRequests = DISABLE;
 181:Src/MCUSetup.c ****   hadc3.Init.EOCSelection = ADC_EOC_SINGLE_CONV;
 182:Src/MCUSetup.c ****   hadc3.Init.LowPowerAutoWait = DISABLE;
 183:Src/MCUSetup.c ****   hadc3.Init.Overrun = ADC_OVR_DATA_OVERWRITTEN;
 184:Src/MCUSetup.c ****   if (HAL_ADC_Init(&hadc3) != HAL_OK) {
 185:Src/MCUSetup.c ****     Error_Handler();
 186:Src/MCUSetup.c ****   }
 187:Src/MCUSetup.c ****   /**Configure the ADC multi-mode
 188:Src/MCUSetup.c ****    */
 189:Src/MCUSetup.c ****   multimode.Mode = ADC_MODE_INDEPENDENT;
 190:Src/MCUSetup.c ****   if (HAL_ADCEx_MultiModeConfigChannel(&hadc3, &multimode) != HAL_OK) {
 191:Src/MCUSetup.c ****     Error_Handler();
 192:Src/MCUSetup.c ****   }
 193:Src/MCUSetup.c ****   /**Configure Regular Channel
 194:Src/MCUSetup.c ****    */
 195:Src/MCUSetup.c ****   sConfig.Channel = ADC_CHANNEL_1;
 196:Src/MCUSetup.c ****   sConfig.Rank = ADC_REGULAR_RANK_1;
 197:Src/MCUSetup.c ****   sConfig.SingleDiff = ADC_SINGLE_ENDED;
 198:Src/MCUSetup.c ****   sConfig.SamplingTime = ADC_SAMPLETIME_1CYCLE_5;
 199:Src/MCUSetup.c ****   sConfig.OffsetNumber = ADC_OFFSET_NONE;
 200:Src/MCUSetup.c ****   sConfig.Offset = 0;
 201:Src/MCUSetup.c ****   if (HAL_ADC_ConfigChannel(&hadc3, &sConfig) != HAL_OK) {
 202:Src/MCUSetup.c ****     Error_Handler();
ARM GAS  /var/folders/hg/yd2wmrcs4nb8mlpb2c051fww0000gn/T//cc23ui6t.s 			page 5


 203:Src/MCUSetup.c ****   }
 204:Src/MCUSetup.c ****   /* USER CODE BEGIN ADC3_Init 2 */
 205:Src/MCUSetup.c **** 
 206:Src/MCUSetup.c ****   /* USER CODE END ADC3_Init 2 */
 207:Src/MCUSetup.c **** }
 208:Src/MCUSetup.c **** 
 209:Src/MCUSetup.c **** /**
 210:Src/MCUSetup.c ****  * @brief SPI1 Initialization Function
 211:Src/MCUSetup.c ****  * @param None
 212:Src/MCUSetup.c ****  * @retval None
 213:Src/MCUSetup.c ****  */
 214:Src/MCUSetup.c **** static void MX_SPI1_Init(void) {
 215:Src/MCUSetup.c **** 
 216:Src/MCUSetup.c ****   /* USER CODE BEGIN SPI1_Init 0 */
 217:Src/MCUSetup.c **** 
 218:Src/MCUSetup.c ****   /* USER CODE END SPI1_Init 0 */
 219:Src/MCUSetup.c **** 
 220:Src/MCUSetup.c ****   /* USER CODE BEGIN SPI1_Init 1 */
 221:Src/MCUSetup.c **** 
 222:Src/MCUSetup.c ****   /* USER CODE END SPI1_Init 1 */
 223:Src/MCUSetup.c ****   /* SPI1 parameter configuration*/
 224:Src/MCUSetup.c ****   hspi1.Instance = SPI1;
 225:Src/MCUSetup.c ****   hspi1.Init.Mode = SPI_MODE_MASTER;
 226:Src/MCUSetup.c ****   hspi1.Init.Direction = SPI_DIRECTION_2LINES;
 227:Src/MCUSetup.c ****   hspi1.Init.DataSize = SPI_DATASIZE_8BIT;
 228:Src/MCUSetup.c ****   hspi1.Init.CLKPolarity = SPI_POLARITY_LOW;
 229:Src/MCUSetup.c ****   hspi1.Init.CLKPhase = SPI_PHASE_1EDGE;
 230:Src/MCUSetup.c ****   hspi1.Init.NSS = SPI_NSS_HARD_OUTPUT;
 231:Src/MCUSetup.c ****   hspi1.Init.BaudRatePrescaler = SPI_BAUDRATEPRESCALER_64;
 232:Src/MCUSetup.c ****   hspi1.Init.FirstBit = SPI_FIRSTBIT_MSB;
 233:Src/MCUSetup.c ****   hspi1.Init.TIMode = SPI_TIMODE_DISABLE;
 234:Src/MCUSetup.c ****   hspi1.Init.CRCCalculation = SPI_CRCCALCULATION_DISABLE;
 235:Src/MCUSetup.c ****   hspi1.Init.CRCPolynomial = 7;
 236:Src/MCUSetup.c ****   hspi1.Init.CRCLength = SPI_CRC_LENGTH_DATASIZE;
 237:Src/MCUSetup.c ****   hspi1.Init.NSSPMode = SPI_NSS_PULSE_ENABLE;
 238:Src/MCUSetup.c ****   if (HAL_SPI_Init(&hspi1) != HAL_OK) {
 239:Src/MCUSetup.c ****     Error_Handler();
 240:Src/MCUSetup.c ****   }
 241:Src/MCUSetup.c ****   /* USER CODE BEGIN SPI1_Init 2 */
 242:Src/MCUSetup.c **** 
 243:Src/MCUSetup.c ****   /* USER CODE END SPI1_Init 2 */
 244:Src/MCUSetup.c **** }
 245:Src/MCUSetup.c **** 
 246:Src/MCUSetup.c **** /**
 247:Src/MCUSetup.c ****  * @brief SPI2 Initialization Function - SID Chip
 248:Src/MCUSetup.c ****  * @param None
 249:Src/MCUSetup.c ****  * @retval None
 250:Src/MCUSetup.c ****  */
 251:Src/MCUSetup.c **** static void MX_SPI2_Init(void) {
 252:Src/MCUSetup.c **** 
 253:Src/MCUSetup.c ****   /* USER CODE BEGIN SPI2_Init 0 */
 254:Src/MCUSetup.c **** 
 255:Src/MCUSetup.c ****   /* USER CODE END SPI2_Init 0 */
 256:Src/MCUSetup.c **** 
 257:Src/MCUSetup.c ****   /* USER CODE BEGIN SPI2_Init 1 */
 258:Src/MCUSetup.c **** 
 259:Src/MCUSetup.c ****   /* USER CODE END SPI2_Init 1 */
ARM GAS  /var/folders/hg/yd2wmrcs4nb8mlpb2c051fww0000gn/T//cc23ui6t.s 			page 6


 260:Src/MCUSetup.c ****   /* SPI2 parameter configuration*/
 261:Src/MCUSetup.c ****   hspi2.Instance = SPI2;
 262:Src/MCUSetup.c ****   hspi2.Init.Mode = SPI_MODE_MASTER;
 263:Src/MCUSetup.c ****   hspi2.Init.Direction = SPI_DIRECTION_2LINES;
 264:Src/MCUSetup.c ****   hspi2.Init.DataSize = SPI_DATASIZE_13BIT; // Length of SID_WORD which contains address and data
 265:Src/MCUSetup.c ****   hspi2.Init.CLKPolarity = SPI_POLARITY_LOW;
 266:Src/MCUSetup.c ****   hspi2.Init.CLKPhase = SPI_PHASE_1EDGE;
 267:Src/MCUSetup.c ****   hspi2.Init.NSS = SPI_NSS_SOFT; // We are going to control the CS pin ourselves
 268:Src/MCUSetup.c ****   hspi2.Init.BaudRatePrescaler =
 269:Src/MCUSetup.c ****       SPI_BAUDRATEPRESCALER_64; // So SPI will run at 1 MHz with a system clock
 270:Src/MCUSetup.c ****                                 // of 1 MHz
 271:Src/MCUSetup.c ****   hspi2.Init.FirstBit = SPI_FIRSTBIT_LSB; // Because I designed the shift register that way
 272:Src/MCUSetup.c ****   hspi2.Init.TIMode = SPI_TIMODE_DISABLE;
 273:Src/MCUSetup.c ****   hspi2.Init.CRCCalculation = SPI_CRCCALCULATION_DISABLE;
 274:Src/MCUSetup.c ****   hspi2.Init.CRCPolynomial = 7;
 275:Src/MCUSetup.c ****   hspi2.Init.CRCLength = SPI_CRC_LENGTH_DATASIZE;
 276:Src/MCUSetup.c ****   hspi2.Init.NSSPMode = SPI_NSS_PULSE_ENABLE;
 277:Src/MCUSetup.c ****   if (HAL_SPI_Init(&hspi2) != HAL_OK) {
 278:Src/MCUSetup.c ****     Error_Handler();
 279:Src/MCUSetup.c ****   }
 280:Src/MCUSetup.c ****   /* USER CODE BEGIN SPI2_Init 2 */
 281:Src/MCUSetup.c **** 
 282:Src/MCUSetup.c ****   /* USER CODE END SPI2_Init 2 */
 283:Src/MCUSetup.c **** }
 284:Src/MCUSetup.c **** 
 285:Src/MCUSetup.c **** /**
 286:Src/MCUSetup.c ****  * @brief USART1 Initialization Function
 287:Src/MCUSetup.c ****  * @param None
 288:Src/MCUSetup.c ****  * @retval None
 289:Src/MCUSetup.c ****  */
 290:Src/MCUSetup.c **** static void MX_USART1_UART_Init(void) {
 291:Src/MCUSetup.c **** 
 292:Src/MCUSetup.c ****   /* USER CODE BEGIN USART1_Init 0 */
 293:Src/MCUSetup.c **** 
 294:Src/MCUSetup.c ****   /* USER CODE END USART1_Init 0 */
 295:Src/MCUSetup.c **** 
 296:Src/MCUSetup.c ****   /* USER CODE BEGIN USART1_Init 1 */
 297:Src/MCUSetup.c **** 
 298:Src/MCUSetup.c ****   /* USER CODE END USART1_Init 1 */
 299:Src/MCUSetup.c ****   huart1.Instance = USART1;
 300:Src/MCUSetup.c ****   huart1.Init.BaudRate = 38400;
 301:Src/MCUSetup.c ****   huart1.Init.WordLength = UART_WORDLENGTH_8B;
 302:Src/MCUSetup.c ****   huart1.Init.StopBits = UART_STOPBITS_1;
 303:Src/MCUSetup.c ****   huart1.Init.Parity = UART_PARITY_NONE;
 304:Src/MCUSetup.c ****   huart1.Init.Mode = UART_MODE_TX_RX;
 305:Src/MCUSetup.c ****   huart1.Init.HwFlowCtl = UART_HWCONTROL_NONE;
 306:Src/MCUSetup.c ****   huart1.Init.OverSampling = UART_OVERSAMPLING_16;
 307:Src/MCUSetup.c ****   huart1.Init.OneBitSampling = UART_ONE_BIT_SAMPLE_DISABLE;
 308:Src/MCUSetup.c ****   huart1.AdvancedInit.AdvFeatureInit = UART_ADVFEATURE_NO_INIT;
 309:Src/MCUSetup.c ****   if (HAL_UART_Init(&huart1) != HAL_OK) {
 310:Src/MCUSetup.c ****     Error_Handler();
 311:Src/MCUSetup.c ****   }
 312:Src/MCUSetup.c ****   /* USER CODE BEGIN USART1_Init 2 */
 313:Src/MCUSetup.c **** 
 314:Src/MCUSetup.c ****   /* USER CODE END USART1_Init 2 */
 315:Src/MCUSetup.c **** }
 316:Src/MCUSetup.c **** 
ARM GAS  /var/folders/hg/yd2wmrcs4nb8mlpb2c051fww0000gn/T//cc23ui6t.s 			page 7


 317:Src/MCUSetup.c **** /**
 318:Src/MCUSetup.c ****  * @brief GPIO Initialization Function
 319:Src/MCUSetup.c ****  * @param None
 320:Src/MCUSetup.c ****  * @retval None
 321:Src/MCUSetup.c ****  */
 322:Src/MCUSetup.c **** static void MX_GPIO_Init(void) {
  28              		.loc 1 322 32 view -0
  29              		.cfi_startproc
  30              		@ args = 0, pretend = 0, frame = 40
  31              		@ frame_needed = 0, uses_anonymous_args = 0
  32 0000 F0B5     		push	{r4, r5, r6, r7, lr}
  33              	.LCFI0:
  34              		.cfi_def_cfa_offset 20
  35              		.cfi_offset 4, -20
  36              		.cfi_offset 5, -16
  37              		.cfi_offset 6, -12
  38              		.cfi_offset 7, -8
  39              		.cfi_offset 14, -4
  40 0002 8BB0     		sub	sp, sp, #44
  41              	.LCFI1:
  42              		.cfi_def_cfa_offset 64
 323:Src/MCUSetup.c ****   GPIO_InitTypeDef GPIO_InitStruct = {0};
  43              		.loc 1 323 3 view .LVU1
  44              		.loc 1 323 20 is_stmt 0 view .LVU2
  45 0004 0024     		movs	r4, #0
  46 0006 0694     		str	r4, [sp, #24]
  47 0008 0794     		str	r4, [sp, #28]
  48 000a 0894     		str	r4, [sp, #32]
  49 000c 0994     		str	r4, [sp, #36]
 324:Src/MCUSetup.c **** 
 325:Src/MCUSetup.c ****   /* GPIO Ports Clock Enable */
 326:Src/MCUSetup.c ****   __HAL_RCC_GPIOC_CLK_ENABLE();
  50              		.loc 1 326 3 is_stmt 1 view .LVU3
  51              	.LBB2:
  52              		.loc 1 326 3 view .LVU4
  53              		.loc 1 326 3 view .LVU5
  54 000e 3B4B     		ldr	r3, .L3
  55 0010 5A69     		ldr	r2, [r3, #20]
  56 0012 42F40022 		orr	r2, r2, #524288
  57 0016 5A61     		str	r2, [r3, #20]
  58              		.loc 1 326 3 view .LVU6
  59 0018 5A69     		ldr	r2, [r3, #20]
  60 001a 02F40022 		and	r2, r2, #524288
  61 001e 0192     		str	r2, [sp, #4]
  62              		.loc 1 326 3 view .LVU7
  63 0020 019A     		ldr	r2, [sp, #4]
  64              	.LBE2:
 327:Src/MCUSetup.c ****   __HAL_RCC_GPIOF_CLK_ENABLE();
  65              		.loc 1 327 3 view .LVU8
  66              	.LBB3:
  67              		.loc 1 327 3 view .LVU9
  68              		.loc 1 327 3 view .LVU10
  69 0022 5A69     		ldr	r2, [r3, #20]
  70 0024 42F48002 		orr	r2, r2, #4194304
  71 0028 5A61     		str	r2, [r3, #20]
  72              		.loc 1 327 3 view .LVU11
  73 002a 5A69     		ldr	r2, [r3, #20]
ARM GAS  /var/folders/hg/yd2wmrcs4nb8mlpb2c051fww0000gn/T//cc23ui6t.s 			page 8


  74 002c 02F48002 		and	r2, r2, #4194304
  75 0030 0292     		str	r2, [sp, #8]
  76              		.loc 1 327 3 view .LVU12
  77 0032 029A     		ldr	r2, [sp, #8]
  78              	.LBE3:
 328:Src/MCUSetup.c ****   __HAL_RCC_GPIOA_CLK_ENABLE();
  79              		.loc 1 328 3 view .LVU13
  80              	.LBB4:
  81              		.loc 1 328 3 view .LVU14
  82              		.loc 1 328 3 view .LVU15
  83 0034 5A69     		ldr	r2, [r3, #20]
  84 0036 42F40032 		orr	r2, r2, #131072
  85 003a 5A61     		str	r2, [r3, #20]
  86              		.loc 1 328 3 view .LVU16
  87 003c 5A69     		ldr	r2, [r3, #20]
  88 003e 02F40032 		and	r2, r2, #131072
  89 0042 0392     		str	r2, [sp, #12]
  90              		.loc 1 328 3 view .LVU17
  91 0044 039A     		ldr	r2, [sp, #12]
  92              	.LBE4:
 329:Src/MCUSetup.c ****   __HAL_RCC_GPIOB_CLK_ENABLE();
  93              		.loc 1 329 3 view .LVU18
  94              	.LBB5:
  95              		.loc 1 329 3 view .LVU19
  96              		.loc 1 329 3 view .LVU20
  97 0046 5A69     		ldr	r2, [r3, #20]
  98 0048 42F48022 		orr	r2, r2, #262144
  99 004c 5A61     		str	r2, [r3, #20]
 100              		.loc 1 329 3 view .LVU21
 101 004e 5B69     		ldr	r3, [r3, #20]
 102 0050 03F48023 		and	r3, r3, #262144
 103 0054 0493     		str	r3, [sp, #16]
 104              		.loc 1 329 3 view .LVU22
 105 0056 049B     		ldr	r3, [sp, #16]
 106              	.LBE5:
 330:Src/MCUSetup.c **** 
 331:Src/MCUSetup.c ****   /*Configure GPIO pins : SID_RES_Pin SID_CS_Pin FREQ_A_Pin FILTER_SW_Pin
 332:Src/MCUSetup.c ****                            FILTEREXT_SW_Pin FILTER3_SW_Pin FILTER2_SW_Pin
 333:Src/MCUSetup.c ****      MOD_SW_Pin MODE_SW_Pin */
 334:Src/MCUSetup.c ****   GPIO_InitStruct.Pin = FREQ_A_Pin | FILTER_SW_Pin | FILTEREXT_SW_Pin |
 107              		.loc 1 334 3 view .LVU23
 108              		.loc 1 334 23 is_stmt 0 view .LVU24
 109 0058 48F6C073 		movw	r3, #36800
 110 005c 0593     		str	r3, [sp, #20]
 335:Src/MCUSetup.c ****                         FILTER3_SW_Pin | FILTER2_SW_Pin | MOD_SW_Pin |
 336:Src/MCUSetup.c ****                         MODE_SW_Pin;
 337:Src/MCUSetup.c ****   GPIO_InitStruct.Mode = GPIO_MODE_INPUT;
 111              		.loc 1 337 3 is_stmt 1 view .LVU25
 338:Src/MCUSetup.c ****   GPIO_InitStruct.Pull = GPIO_NOPULL;
 112              		.loc 1 338 3 view .LVU26
 339:Src/MCUSetup.c ****   HAL_GPIO_Init(GPIOC, &GPIO_InitStruct);
 113              		.loc 1 339 3 view .LVU27
 114 005e 284F     		ldr	r7, .L3+4
 115 0060 05A9     		add	r1, sp, #20
 116 0062 3846     		mov	r0, r7
 117 0064 FFF7FEFF 		bl	HAL_GPIO_Init
 118              	.LVL0:
ARM GAS  /var/folders/hg/yd2wmrcs4nb8mlpb2c051fww0000gn/T//cc23ui6t.s 			page 9


 340:Src/MCUSetup.c **** 
 341:Src/MCUSetup.c ****   // SID Pins
 342:Src/MCUSetup.c ****   GPIO_InitStruct.Pin = SID_RES_Pin | SID_CS_Pin;
 119              		.loc 1 342 3 view .LVU28
 120              		.loc 1 342 23 is_stmt 0 view .LVU29
 121 0068 4FF4C043 		mov	r3, #24576
 122 006c 0593     		str	r3, [sp, #20]
 343:Src/MCUSetup.c ****   GPIO_InitStruct.Mode = GPIO_MODE_OUTPUT_PP;
 123              		.loc 1 343 3 is_stmt 1 view .LVU30
 124              		.loc 1 343 24 is_stmt 0 view .LVU31
 125 006e 0125     		movs	r5, #1
 126 0070 0695     		str	r5, [sp, #24]
 344:Src/MCUSetup.c ****   GPIO_InitStruct.Speed = GPIO_SPEED_FREQ_HIGH;
 127              		.loc 1 344 3 is_stmt 1 view .LVU32
 128              		.loc 1 344 25 is_stmt 0 view .LVU33
 129 0072 0326     		movs	r6, #3
 130 0074 0896     		str	r6, [sp, #32]
 345:Src/MCUSetup.c ****   HAL_GPIO_Init(GPIOC, &GPIO_InitStruct);
 131              		.loc 1 345 3 is_stmt 1 view .LVU34
 132 0076 05A9     		add	r1, sp, #20
 133 0078 3846     		mov	r0, r7
 134 007a FFF7FEFF 		bl	HAL_GPIO_Init
 135              	.LVL1:
 346:Src/MCUSetup.c **** 
 347:Src/MCUSetup.c ****   // SID SPI Pins
 348:Src/MCUSetup.c ****   GPIO_InitStruct.Pin = SID_DATA_Pin | SID_CLK_Pin | SID_LATCH_Pin;
 136              		.loc 1 348 3 view .LVU35
 137              		.loc 1 348 23 is_stmt 0 view .LVU36
 138 007e 4FF43043 		mov	r3, #45056
 139 0082 0593     		str	r3, [sp, #20]
 349:Src/MCUSetup.c ****   GPIO_InitStruct.Mode =
 140              		.loc 1 349 3 is_stmt 1 view .LVU37
 141              		.loc 1 349 24 is_stmt 0 view .LVU38
 142 0084 0223     		movs	r3, #2
 143 0086 0693     		str	r3, [sp, #24]
 350:Src/MCUSetup.c ****       GPIO_MODE_AF_PP; // From the datasheet, SPI2 is on Alternate Function 5
 351:Src/MCUSetup.c ****   GPIO_InitStruct.Pull = GPIO_PULLUP;
 144              		.loc 1 351 3 is_stmt 1 view .LVU39
 145              		.loc 1 351 24 is_stmt 0 view .LVU40
 146 0088 0795     		str	r5, [sp, #28]
 352:Src/MCUSetup.c ****   GPIO_InitStruct.Speed = GPIO_SPEED_FREQ_HIGH;
 147              		.loc 1 352 3 is_stmt 1 view .LVU41
 148              		.loc 1 352 25 is_stmt 0 view .LVU42
 149 008a 0896     		str	r6, [sp, #32]
 353:Src/MCUSetup.c ****   GPIO_InitStruct.Alternate = GPIO_AF5_SPI2;
 150              		.loc 1 353 3 is_stmt 1 view .LVU43
 151              		.loc 1 353 29 is_stmt 0 view .LVU44
 152 008c 0523     		movs	r3, #5
 153 008e 0993     		str	r3, [sp, #36]
 354:Src/MCUSetup.c ****   HAL_GPIO_Init(GPIOB, &GPIO_InitStruct);
 154              		.loc 1 354 3 is_stmt 1 view .LVU45
 155 0090 A7F58067 		sub	r7, r7, #1024
 156 0094 05A9     		add	r1, sp, #20
 157 0096 3846     		mov	r0, r7
 158 0098 FFF7FEFF 		bl	HAL_GPIO_Init
 159              	.LVL2:
 355:Src/MCUSetup.c **** 
ARM GAS  /var/folders/hg/yd2wmrcs4nb8mlpb2c051fww0000gn/T//cc23ui6t.s 			page 10


 356:Src/MCUSetup.c ****   /*Configure GPIO pins : FREQ_B_Pin FREQ_SW_Pin */
 357:Src/MCUSetup.c ****   GPIO_InitStruct.Pin = FREQ_B_Pin | FREQ_SW_Pin;
 160              		.loc 1 357 3 view .LVU46
 161              		.loc 1 357 23 is_stmt 0 view .LVU47
 162 009c 0596     		str	r6, [sp, #20]
 358:Src/MCUSetup.c ****   GPIO_InitStruct.Mode = GPIO_MODE_INPUT;
 163              		.loc 1 358 3 is_stmt 1 view .LVU48
 164              		.loc 1 358 24 is_stmt 0 view .LVU49
 165 009e 0694     		str	r4, [sp, #24]
 359:Src/MCUSetup.c ****   GPIO_InitStruct.Pull = GPIO_NOPULL;
 166              		.loc 1 359 3 is_stmt 1 view .LVU50
 167              		.loc 1 359 24 is_stmt 0 view .LVU51
 168 00a0 0794     		str	r4, [sp, #28]
 360:Src/MCUSetup.c ****   HAL_GPIO_Init(GPIOF, &GPIO_InitStruct);
 169              		.loc 1 360 3 is_stmt 1 view .LVU52
 170 00a2 05A9     		add	r1, sp, #20
 171 00a4 1748     		ldr	r0, .L3+8
 172 00a6 FFF7FEFF 		bl	HAL_GPIO_Init
 173              	.LVL3:
 361:Src/MCUSetup.c **** 
 362:Src/MCUSetup.c ****   /*Configure GPIO pins : GATE_1_Pin GATE_2_Pin GATE_3_Pin VOICE_SW_Pin */
 363:Src/MCUSetup.c ****   GPIO_InitStruct.Pin = GATE_1_Pin | GATE_2_Pin | GATE_3_Pin | VOICE_SW_Pin;
 174              		.loc 1 363 3 view .LVU53
 175              		.loc 1 363 23 is_stmt 0 view .LVU54
 176 00aa 44F60443 		movw	r3, #19460
 177 00ae 0593     		str	r3, [sp, #20]
 364:Src/MCUSetup.c ****   GPIO_InitStruct.Mode = GPIO_MODE_INPUT;
 178              		.loc 1 364 3 is_stmt 1 view .LVU55
 179              		.loc 1 364 24 is_stmt 0 view .LVU56
 180 00b0 0694     		str	r4, [sp, #24]
 365:Src/MCUSetup.c ****   GPIO_InitStruct.Pull = GPIO_NOPULL;
 181              		.loc 1 365 3 is_stmt 1 view .LVU57
 182              		.loc 1 365 24 is_stmt 0 view .LVU58
 183 00b2 0794     		str	r4, [sp, #28]
 366:Src/MCUSetup.c ****   HAL_GPIO_Init(GPIOB, &GPIO_InitStruct);
 184              		.loc 1 366 3 is_stmt 1 view .LVU59
 185 00b4 05A9     		add	r1, sp, #20
 186 00b6 3846     		mov	r0, r7
 187 00b8 FFF7FEFF 		bl	HAL_GPIO_Init
 188              	.LVL4:
 367:Src/MCUSetup.c **** 
 368:Src/MCUSetup.c ****   /*Configure GPIO pins : FILTER1_SW_Pin SHAPE_SW_Pin SET_SW_Pin */
 369:Src/MCUSetup.c ****   GPIO_InitStruct.Pin = FILTER1_SW_Pin | SHAPE_SW_Pin | SET_SW_Pin;
 189              		.loc 1 369 3 view .LVU60
 190              		.loc 1 369 23 is_stmt 0 view .LVU61
 191 00bc 4FF4C853 		mov	r3, #6400
 192 00c0 0593     		str	r3, [sp, #20]
 370:Src/MCUSetup.c ****   GPIO_InitStruct.Mode = GPIO_MODE_INPUT;
 193              		.loc 1 370 3 is_stmt 1 view .LVU62
 194              		.loc 1 370 24 is_stmt 0 view .LVU63
 195 00c2 0694     		str	r4, [sp, #24]
 371:Src/MCUSetup.c ****   GPIO_InitStruct.Pull = GPIO_NOPULL;
 196              		.loc 1 371 3 is_stmt 1 view .LVU64
 197              		.loc 1 371 24 is_stmt 0 view .LVU65
 198 00c4 0794     		str	r4, [sp, #28]
 372:Src/MCUSetup.c ****   HAL_GPIO_Init(GPIOA, &GPIO_InitStruct);
 199              		.loc 1 372 3 is_stmt 1 view .LVU66
ARM GAS  /var/folders/hg/yd2wmrcs4nb8mlpb2c051fww0000gn/T//cc23ui6t.s 			page 11


 200 00c6 05A9     		add	r1, sp, #20
 201 00c8 4FF09040 		mov	r0, #1207959552
 202 00cc FFF7FEFF 		bl	HAL_GPIO_Init
 203              	.LVL5:
 373:Src/MCUSetup.c **** 
 374:Src/MCUSetup.c ****   /* Configure LED Driver pins as generic GPIO */
 375:Src/MCUSetup.c ****   GPIO_InitStruct.Pin = LED_CLK_Pin | LED_DATA_Pin;
 204              		.loc 1 375 3 view .LVU67
 205              		.loc 1 375 23 is_stmt 0 view .LVU68
 206 00d0 2823     		movs	r3, #40
 207 00d2 0593     		str	r3, [sp, #20]
 376:Src/MCUSetup.c ****   GPIO_InitStruct.Mode = GPIO_MODE_OUTPUT_PP;
 208              		.loc 1 376 3 is_stmt 1 view .LVU69
 209              		.loc 1 376 24 is_stmt 0 view .LVU70
 210 00d4 0695     		str	r5, [sp, #24]
 377:Src/MCUSetup.c ****   GPIO_InitStruct.Pull = GPIO_PULLUP;
 211              		.loc 1 377 3 is_stmt 1 view .LVU71
 212              		.loc 1 377 24 is_stmt 0 view .LVU72
 213 00d6 0795     		str	r5, [sp, #28]
 378:Src/MCUSetup.c ****   GPIO_InitStruct.Speed = GPIO_SPEED_FREQ_HIGH;
 214              		.loc 1 378 3 is_stmt 1 view .LVU73
 215              		.loc 1 378 25 is_stmt 0 view .LVU74
 216 00d8 0896     		str	r6, [sp, #32]
 379:Src/MCUSetup.c ****   HAL_GPIO_Init(LED_CLK_GPIO_Port, &GPIO_InitStruct);
 217              		.loc 1 379 3 is_stmt 1 view .LVU75
 218 00da 05A9     		add	r1, sp, #20
 219 00dc 3846     		mov	r0, r7
 220 00de FFF7FEFF 		bl	HAL_GPIO_Init
 221              	.LVL6:
 380:Src/MCUSetup.c **** 
 381:Src/MCUSetup.c ****   // There is one LED pin (LATCH) that is not on the GPIOB
 382:Src/MCUSetup.c ****   GPIO_InitStruct.Pin = LED_LATCH_Pin;
 222              		.loc 1 382 3 view .LVU76
 223              		.loc 1 382 23 is_stmt 0 view .LVU77
 224 00e2 4FF40043 		mov	r3, #32768
 225 00e6 0593     		str	r3, [sp, #20]
 383:Src/MCUSetup.c ****   GPIO_InitStruct.Mode = GPIO_MODE_OUTPUT_PP;
 226              		.loc 1 383 3 is_stmt 1 view .LVU78
 227              		.loc 1 383 24 is_stmt 0 view .LVU79
 228 00e8 0695     		str	r5, [sp, #24]
 384:Src/MCUSetup.c ****   GPIO_InitStruct.Pull = GPIO_PULLUP;
 229              		.loc 1 384 3 is_stmt 1 view .LVU80
 230              		.loc 1 384 24 is_stmt 0 view .LVU81
 231 00ea 0795     		str	r5, [sp, #28]
 385:Src/MCUSetup.c ****   GPIO_InitStruct.Speed = GPIO_SPEED_FREQ_HIGH;
 232              		.loc 1 385 3 is_stmt 1 view .LVU82
 233              		.loc 1 385 25 is_stmt 0 view .LVU83
 234 00ec 0896     		str	r6, [sp, #32]
 386:Src/MCUSetup.c ****   HAL_GPIO_Init(LED_LATCH_GPIO_Port, &GPIO_InitStruct);
 235              		.loc 1 386 3 is_stmt 1 view .LVU84
 236 00ee 05A9     		add	r1, sp, #20
 237 00f0 4FF09040 		mov	r0, #1207959552
 238 00f4 FFF7FEFF 		bl	HAL_GPIO_Init
 239              	.LVL7:
 387:Src/MCUSetup.c **** }
 240              		.loc 1 387 1 is_stmt 0 view .LVU85
 241 00f8 0BB0     		add	sp, sp, #44
ARM GAS  /var/folders/hg/yd2wmrcs4nb8mlpb2c051fww0000gn/T//cc23ui6t.s 			page 12


 242              	.LCFI2:
 243              		.cfi_def_cfa_offset 20
 244              		@ sp needed
 245 00fa F0BD     		pop	{r4, r5, r6, r7, pc}
 246              	.L4:
 247              		.align	2
 248              	.L3:
 249 00fc 00100240 		.word	1073876992
 250 0100 00080048 		.word	1207961600
 251 0104 00140048 		.word	1207964672
 252              		.cfi_endproc
 253              	.LFE133:
 255              		.section	.text.MX_ADC1_Init,"ax",%progbits
 256              		.align	1
 257              		.syntax unified
 258              		.thumb
 259              		.thumb_func
 260              		.fpu fpv4-sp-d16
 262              	MX_ADC1_Init:
 263              	.LFB127:
  47:Src/MCUSetup.c **** 
 264              		.loc 1 47 32 is_stmt 1 view -0
 265              		.cfi_startproc
 266              		@ args = 0, pretend = 0, frame = 40
 267              		@ frame_needed = 0, uses_anonymous_args = 0
 268 0000 70B5     		push	{r4, r5, r6, lr}
 269              	.LCFI3:
 270              		.cfi_def_cfa_offset 16
 271              		.cfi_offset 4, -16
 272              		.cfi_offset 5, -12
 273              		.cfi_offset 6, -8
 274              		.cfi_offset 14, -4
 275 0002 8AB0     		sub	sp, sp, #40
 276              	.LCFI4:
 277              		.cfi_def_cfa_offset 56
  53:Src/MCUSetup.c ****   ADC_ChannelConfTypeDef sConfig = {0};
 278              		.loc 1 53 3 view .LVU87
  53:Src/MCUSetup.c ****   ADC_ChannelConfTypeDef sConfig = {0};
 279              		.loc 1 53 24 is_stmt 0 view .LVU88
 280 0004 0024     		movs	r4, #0
 281 0006 0794     		str	r4, [sp, #28]
 282 0008 0894     		str	r4, [sp, #32]
 283 000a 0994     		str	r4, [sp, #36]
  54:Src/MCUSetup.c **** 
 284              		.loc 1 54 3 is_stmt 1 view .LVU89
  54:Src/MCUSetup.c **** 
 285              		.loc 1 54 26 is_stmt 0 view .LVU90
 286 000c 0194     		str	r4, [sp, #4]
 287 000e 0294     		str	r4, [sp, #8]
 288 0010 0394     		str	r4, [sp, #12]
 289 0012 0494     		str	r4, [sp, #16]
 290 0014 0594     		str	r4, [sp, #20]
 291 0016 0694     		str	r4, [sp, #24]
  61:Src/MCUSetup.c ****   hadc1.Init.ClockPrescaler = ADC_CLOCK_ASYNC_DIV1;
 292              		.loc 1 61 3 is_stmt 1 view .LVU91
  61:Src/MCUSetup.c ****   hadc1.Init.ClockPrescaler = ADC_CLOCK_ASYNC_DIV1;
 293              		.loc 1 61 18 is_stmt 0 view .LVU92
ARM GAS  /var/folders/hg/yd2wmrcs4nb8mlpb2c051fww0000gn/T//cc23ui6t.s 			page 13


 294 0018 134D     		ldr	r5, .L7
 295 001a 4FF0A043 		mov	r3, #1342177280
 296 001e 2B60     		str	r3, [r5]
  62:Src/MCUSetup.c ****   hadc1.Init.Resolution = ADC_RESOLUTION_12B;
 297              		.loc 1 62 3 is_stmt 1 view .LVU93
  62:Src/MCUSetup.c ****   hadc1.Init.Resolution = ADC_RESOLUTION_12B;
 298              		.loc 1 62 29 is_stmt 0 view .LVU94
 299 0020 6C60     		str	r4, [r5, #4]
  63:Src/MCUSetup.c ****   hadc1.Init.ScanConvMode = ADC_SCAN_DISABLE;
 300              		.loc 1 63 3 is_stmt 1 view .LVU95
  63:Src/MCUSetup.c ****   hadc1.Init.ScanConvMode = ADC_SCAN_DISABLE;
 301              		.loc 1 63 25 is_stmt 0 view .LVU96
 302 0022 AC60     		str	r4, [r5, #8]
  64:Src/MCUSetup.c ****   hadc1.Init.ContinuousConvMode = DISABLE;
 303              		.loc 1 64 3 is_stmt 1 view .LVU97
  64:Src/MCUSetup.c ****   hadc1.Init.ContinuousConvMode = DISABLE;
 304              		.loc 1 64 27 is_stmt 0 view .LVU98
 305 0024 2C61     		str	r4, [r5, #16]
  65:Src/MCUSetup.c ****   hadc1.Init.DiscontinuousConvMode = DISABLE;
 306              		.loc 1 65 3 is_stmt 1 view .LVU99
  65:Src/MCUSetup.c ****   hadc1.Init.DiscontinuousConvMode = DISABLE;
 307              		.loc 1 65 33 is_stmt 0 view .LVU100
 308 0026 EC61     		str	r4, [r5, #28]
  66:Src/MCUSetup.c ****   hadc1.Init.ExternalTrigConvEdge = ADC_EXTERNALTRIGCONVEDGE_NONE;
 309              		.loc 1 66 3 is_stmt 1 view .LVU101
  66:Src/MCUSetup.c ****   hadc1.Init.ExternalTrigConvEdge = ADC_EXTERNALTRIGCONVEDGE_NONE;
 310              		.loc 1 66 36 is_stmt 0 view .LVU102
 311 0028 6C62     		str	r4, [r5, #36]
  67:Src/MCUSetup.c ****   hadc1.Init.ExternalTrigConv = ADC_SOFTWARE_START;
 312              		.loc 1 67 3 is_stmt 1 view .LVU103
  67:Src/MCUSetup.c ****   hadc1.Init.ExternalTrigConv = ADC_SOFTWARE_START;
 313              		.loc 1 67 35 is_stmt 0 view .LVU104
 314 002a 2C63     		str	r4, [r5, #48]
  68:Src/MCUSetup.c ****   hadc1.Init.DataAlign = ADC_DATAALIGN_RIGHT;
 315              		.loc 1 68 3 is_stmt 1 view .LVU105
  68:Src/MCUSetup.c ****   hadc1.Init.DataAlign = ADC_DATAALIGN_RIGHT;
 316              		.loc 1 68 31 is_stmt 0 view .LVU106
 317 002c 0126     		movs	r6, #1
 318 002e EE62     		str	r6, [r5, #44]
  69:Src/MCUSetup.c ****   hadc1.Init.NbrOfConversion = 1;
 319              		.loc 1 69 3 is_stmt 1 view .LVU107
  69:Src/MCUSetup.c ****   hadc1.Init.NbrOfConversion = 1;
 320              		.loc 1 69 24 is_stmt 0 view .LVU108
 321 0030 EC60     		str	r4, [r5, #12]
  70:Src/MCUSetup.c ****   hadc1.Init.DMAContinuousRequests = DISABLE;
 322              		.loc 1 70 3 is_stmt 1 view .LVU109
  70:Src/MCUSetup.c ****   hadc1.Init.DMAContinuousRequests = DISABLE;
 323              		.loc 1 70 30 is_stmt 0 view .LVU110
 324 0032 2E62     		str	r6, [r5, #32]
  71:Src/MCUSetup.c ****   hadc1.Init.EOCSelection = ADC_EOC_SINGLE_CONV;
 325              		.loc 1 71 3 is_stmt 1 view .LVU111
  71:Src/MCUSetup.c ****   hadc1.Init.EOCSelection = ADC_EOC_SINGLE_CONV;
 326              		.loc 1 71 36 is_stmt 0 view .LVU112
 327 0034 6C63     		str	r4, [r5, #52]
  72:Src/MCUSetup.c ****   hadc1.Init.LowPowerAutoWait = DISABLE;
 328              		.loc 1 72 3 is_stmt 1 view .LVU113
  72:Src/MCUSetup.c ****   hadc1.Init.LowPowerAutoWait = DISABLE;
ARM GAS  /var/folders/hg/yd2wmrcs4nb8mlpb2c051fww0000gn/T//cc23ui6t.s 			page 14


 329              		.loc 1 72 27 is_stmt 0 view .LVU114
 330 0036 0423     		movs	r3, #4
 331 0038 6B61     		str	r3, [r5, #20]
  73:Src/MCUSetup.c ****   hadc1.Init.Overrun = ADC_OVR_DATA_OVERWRITTEN;
 332              		.loc 1 73 3 is_stmt 1 view .LVU115
  73:Src/MCUSetup.c ****   hadc1.Init.Overrun = ADC_OVR_DATA_OVERWRITTEN;
 333              		.loc 1 73 31 is_stmt 0 view .LVU116
 334 003a AC61     		str	r4, [r5, #24]
  74:Src/MCUSetup.c ****   if (HAL_ADC_Init(&hadc1) != HAL_OK) {
 335              		.loc 1 74 3 is_stmt 1 view .LVU117
  74:Src/MCUSetup.c ****   if (HAL_ADC_Init(&hadc1) != HAL_OK) {
 336              		.loc 1 74 22 is_stmt 0 view .LVU118
 337 003c AC63     		str	r4, [r5, #56]
  75:Src/MCUSetup.c ****     Error_Handler();
 338              		.loc 1 75 3 is_stmt 1 view .LVU119
  75:Src/MCUSetup.c ****     Error_Handler();
 339              		.loc 1 75 7 is_stmt 0 view .LVU120
 340 003e 2846     		mov	r0, r5
 341 0040 FFF7FEFF 		bl	HAL_ADC_Init
 342              	.LVL8:
  80:Src/MCUSetup.c ****   if (HAL_ADCEx_MultiModeConfigChannel(&hadc1, &multimode) != HAL_OK) {
 343              		.loc 1 80 3 is_stmt 1 view .LVU121
  80:Src/MCUSetup.c ****   if (HAL_ADCEx_MultiModeConfigChannel(&hadc1, &multimode) != HAL_OK) {
 344              		.loc 1 80 18 is_stmt 0 view .LVU122
 345 0044 0794     		str	r4, [sp, #28]
  81:Src/MCUSetup.c ****     Error_Handler();
 346              		.loc 1 81 3 is_stmt 1 view .LVU123
  81:Src/MCUSetup.c ****     Error_Handler();
 347              		.loc 1 81 7 is_stmt 0 view .LVU124
 348 0046 07A9     		add	r1, sp, #28
 349 0048 2846     		mov	r0, r5
 350 004a FFF7FEFF 		bl	HAL_ADCEx_MultiModeConfigChannel
 351              	.LVL9:
  86:Src/MCUSetup.c ****   sConfig.Rank = ADC_REGULAR_RANK_1;
 352              		.loc 1 86 3 is_stmt 1 view .LVU125
  86:Src/MCUSetup.c ****   sConfig.Rank = ADC_REGULAR_RANK_1;
 353              		.loc 1 86 19 is_stmt 0 view .LVU126
 354 004e 0196     		str	r6, [sp, #4]
  87:Src/MCUSetup.c ****   sConfig.SingleDiff = ADC_SINGLE_ENDED;
 355              		.loc 1 87 3 is_stmt 1 view .LVU127
  87:Src/MCUSetup.c ****   sConfig.SingleDiff = ADC_SINGLE_ENDED;
 356              		.loc 1 87 16 is_stmt 0 view .LVU128
 357 0050 0296     		str	r6, [sp, #8]
  88:Src/MCUSetup.c ****   sConfig.SamplingTime = ADC_SAMPLETIME_1CYCLE_5;
 358              		.loc 1 88 3 is_stmt 1 view .LVU129
  88:Src/MCUSetup.c ****   sConfig.SamplingTime = ADC_SAMPLETIME_1CYCLE_5;
 359              		.loc 1 88 22 is_stmt 0 view .LVU130
 360 0052 0494     		str	r4, [sp, #16]
  89:Src/MCUSetup.c ****   sConfig.OffsetNumber = ADC_OFFSET_NONE;
 361              		.loc 1 89 3 is_stmt 1 view .LVU131
  89:Src/MCUSetup.c ****   sConfig.OffsetNumber = ADC_OFFSET_NONE;
 362              		.loc 1 89 24 is_stmt 0 view .LVU132
 363 0054 0394     		str	r4, [sp, #12]
  90:Src/MCUSetup.c ****   sConfig.Offset = 0;
 364              		.loc 1 90 3 is_stmt 1 view .LVU133
  90:Src/MCUSetup.c ****   sConfig.Offset = 0;
 365              		.loc 1 90 24 is_stmt 0 view .LVU134
ARM GAS  /var/folders/hg/yd2wmrcs4nb8mlpb2c051fww0000gn/T//cc23ui6t.s 			page 15


 366 0056 0594     		str	r4, [sp, #20]
  91:Src/MCUSetup.c ****   if (HAL_ADC_ConfigChannel(&hadc1, &sConfig) != HAL_OK) {
 367              		.loc 1 91 3 is_stmt 1 view .LVU135
  91:Src/MCUSetup.c ****   if (HAL_ADC_ConfigChannel(&hadc1, &sConfig) != HAL_OK) {
 368              		.loc 1 91 18 is_stmt 0 view .LVU136
 369 0058 0694     		str	r4, [sp, #24]
  92:Src/MCUSetup.c ****     Error_Handler();
 370              		.loc 1 92 3 is_stmt 1 view .LVU137
  92:Src/MCUSetup.c ****     Error_Handler();
 371              		.loc 1 92 7 is_stmt 0 view .LVU138
 372 005a 01A9     		add	r1, sp, #4
 373 005c 2846     		mov	r0, r5
 374 005e FFF7FEFF 		bl	HAL_ADC_ConfigChannel
 375              	.LVL10:
  98:Src/MCUSetup.c **** 
 376              		.loc 1 98 1 view .LVU139
 377 0062 0AB0     		add	sp, sp, #40
 378              	.LCFI5:
 379              		.cfi_def_cfa_offset 16
 380              		@ sp needed
 381 0064 70BD     		pop	{r4, r5, r6, pc}
 382              	.L8:
 383 0066 00BF     		.align	2
 384              	.L7:
 385 0068 00000000 		.word	hadc1
 386              		.cfi_endproc
 387              	.LFE127:
 389              		.section	.text.MX_ADC2_Init,"ax",%progbits
 390              		.align	1
 391              		.syntax unified
 392              		.thumb
 393              		.thumb_func
 394              		.fpu fpv4-sp-d16
 396              	MX_ADC2_Init:
 397              	.LFB128:
 105:Src/MCUSetup.c **** 
 398              		.loc 1 105 32 is_stmt 1 view -0
 399              		.cfi_startproc
 400              		@ args = 0, pretend = 0, frame = 24
 401              		@ frame_needed = 0, uses_anonymous_args = 0
 402 0000 70B5     		push	{r4, r5, r6, lr}
 403              	.LCFI6:
 404              		.cfi_def_cfa_offset 16
 405              		.cfi_offset 4, -16
 406              		.cfi_offset 5, -12
 407              		.cfi_offset 6, -8
 408              		.cfi_offset 14, -4
 409 0002 86B0     		sub	sp, sp, #24
 410              	.LCFI7:
 411              		.cfi_def_cfa_offset 40
 111:Src/MCUSetup.c **** 
 412              		.loc 1 111 3 view .LVU141
 111:Src/MCUSetup.c **** 
 413              		.loc 1 111 26 is_stmt 0 view .LVU142
 414 0004 0024     		movs	r4, #0
 415 0006 0094     		str	r4, [sp]
 416 0008 0194     		str	r4, [sp, #4]
ARM GAS  /var/folders/hg/yd2wmrcs4nb8mlpb2c051fww0000gn/T//cc23ui6t.s 			page 16


 417 000a 0294     		str	r4, [sp, #8]
 418 000c 0394     		str	r4, [sp, #12]
 419 000e 0494     		str	r4, [sp, #16]
 420 0010 0594     		str	r4, [sp, #20]
 118:Src/MCUSetup.c ****   hadc2.Init.ClockPrescaler = ADC_CLOCK_ASYNC_DIV1;
 421              		.loc 1 118 3 is_stmt 1 view .LVU143
 118:Src/MCUSetup.c ****   hadc2.Init.ClockPrescaler = ADC_CLOCK_ASYNC_DIV1;
 422              		.loc 1 118 18 is_stmt 0 view .LVU144
 423 0012 114D     		ldr	r5, .L11
 424 0014 114B     		ldr	r3, .L11+4
 425 0016 2B60     		str	r3, [r5]
 119:Src/MCUSetup.c ****   hadc2.Init.Resolution = ADC_RESOLUTION_12B;
 426              		.loc 1 119 3 is_stmt 1 view .LVU145
 119:Src/MCUSetup.c ****   hadc2.Init.Resolution = ADC_RESOLUTION_12B;
 427              		.loc 1 119 29 is_stmt 0 view .LVU146
 428 0018 6C60     		str	r4, [r5, #4]
 120:Src/MCUSetup.c ****   hadc2.Init.ScanConvMode = ADC_SCAN_DISABLE;
 429              		.loc 1 120 3 is_stmt 1 view .LVU147
 120:Src/MCUSetup.c ****   hadc2.Init.ScanConvMode = ADC_SCAN_DISABLE;
 430              		.loc 1 120 25 is_stmt 0 view .LVU148
 431 001a AC60     		str	r4, [r5, #8]
 121:Src/MCUSetup.c ****   hadc2.Init.ContinuousConvMode = DISABLE;
 432              		.loc 1 121 3 is_stmt 1 view .LVU149
 121:Src/MCUSetup.c ****   hadc2.Init.ContinuousConvMode = DISABLE;
 433              		.loc 1 121 27 is_stmt 0 view .LVU150
 434 001c 2C61     		str	r4, [r5, #16]
 122:Src/MCUSetup.c ****   hadc2.Init.DiscontinuousConvMode = DISABLE;
 435              		.loc 1 122 3 is_stmt 1 view .LVU151
 122:Src/MCUSetup.c ****   hadc2.Init.DiscontinuousConvMode = DISABLE;
 436              		.loc 1 122 33 is_stmt 0 view .LVU152
 437 001e EC61     		str	r4, [r5, #28]
 123:Src/MCUSetup.c ****   hadc2.Init.ExternalTrigConvEdge = ADC_EXTERNALTRIGCONVEDGE_NONE;
 438              		.loc 1 123 3 is_stmt 1 view .LVU153
 123:Src/MCUSetup.c ****   hadc2.Init.ExternalTrigConvEdge = ADC_EXTERNALTRIGCONVEDGE_NONE;
 439              		.loc 1 123 36 is_stmt 0 view .LVU154
 440 0020 6C62     		str	r4, [r5, #36]
 124:Src/MCUSetup.c ****   hadc2.Init.ExternalTrigConv = ADC_SOFTWARE_START;
 441              		.loc 1 124 3 is_stmt 1 view .LVU155
 124:Src/MCUSetup.c ****   hadc2.Init.ExternalTrigConv = ADC_SOFTWARE_START;
 442              		.loc 1 124 35 is_stmt 0 view .LVU156
 443 0022 2C63     		str	r4, [r5, #48]
 125:Src/MCUSetup.c ****   hadc2.Init.DataAlign = ADC_DATAALIGN_RIGHT;
 444              		.loc 1 125 3 is_stmt 1 view .LVU157
 125:Src/MCUSetup.c ****   hadc2.Init.DataAlign = ADC_DATAALIGN_RIGHT;
 445              		.loc 1 125 31 is_stmt 0 view .LVU158
 446 0024 0126     		movs	r6, #1
 447 0026 EE62     		str	r6, [r5, #44]
 126:Src/MCUSetup.c ****   hadc2.Init.NbrOfConversion = 1;
 448              		.loc 1 126 3 is_stmt 1 view .LVU159
 126:Src/MCUSetup.c ****   hadc2.Init.NbrOfConversion = 1;
 449              		.loc 1 126 24 is_stmt 0 view .LVU160
 450 0028 EC60     		str	r4, [r5, #12]
 127:Src/MCUSetup.c ****   hadc2.Init.DMAContinuousRequests = DISABLE;
 451              		.loc 1 127 3 is_stmt 1 view .LVU161
 127:Src/MCUSetup.c ****   hadc2.Init.DMAContinuousRequests = DISABLE;
 452              		.loc 1 127 30 is_stmt 0 view .LVU162
 453 002a 2E62     		str	r6, [r5, #32]
ARM GAS  /var/folders/hg/yd2wmrcs4nb8mlpb2c051fww0000gn/T//cc23ui6t.s 			page 17


 128:Src/MCUSetup.c ****   hadc2.Init.EOCSelection = ADC_EOC_SINGLE_CONV;
 454              		.loc 1 128 3 is_stmt 1 view .LVU163
 128:Src/MCUSetup.c ****   hadc2.Init.EOCSelection = ADC_EOC_SINGLE_CONV;
 455              		.loc 1 128 36 is_stmt 0 view .LVU164
 456 002c 6C63     		str	r4, [r5, #52]
 129:Src/MCUSetup.c ****   hadc2.Init.LowPowerAutoWait = DISABLE;
 457              		.loc 1 129 3 is_stmt 1 view .LVU165
 129:Src/MCUSetup.c ****   hadc2.Init.LowPowerAutoWait = DISABLE;
 458              		.loc 1 129 27 is_stmt 0 view .LVU166
 459 002e 0423     		movs	r3, #4
 460 0030 6B61     		str	r3, [r5, #20]
 130:Src/MCUSetup.c ****   hadc2.Init.Overrun = ADC_OVR_DATA_OVERWRITTEN;
 461              		.loc 1 130 3 is_stmt 1 view .LVU167
 130:Src/MCUSetup.c ****   hadc2.Init.Overrun = ADC_OVR_DATA_OVERWRITTEN;
 462              		.loc 1 130 31 is_stmt 0 view .LVU168
 463 0032 AC61     		str	r4, [r5, #24]
 131:Src/MCUSetup.c ****   if (HAL_ADC_Init(&hadc2) != HAL_OK) {
 464              		.loc 1 131 3 is_stmt 1 view .LVU169
 131:Src/MCUSetup.c ****   if (HAL_ADC_Init(&hadc2) != HAL_OK) {
 465              		.loc 1 131 22 is_stmt 0 view .LVU170
 466 0034 AC63     		str	r4, [r5, #56]
 132:Src/MCUSetup.c ****     Error_Handler();
 467              		.loc 1 132 3 is_stmt 1 view .LVU171
 132:Src/MCUSetup.c ****     Error_Handler();
 468              		.loc 1 132 7 is_stmt 0 view .LVU172
 469 0036 2846     		mov	r0, r5
 470 0038 FFF7FEFF 		bl	HAL_ADC_Init
 471              	.LVL11:
 137:Src/MCUSetup.c ****   sConfig.Rank = ADC_REGULAR_RANK_1;
 472              		.loc 1 137 3 is_stmt 1 view .LVU173
 137:Src/MCUSetup.c ****   sConfig.Rank = ADC_REGULAR_RANK_1;
 473              		.loc 1 137 19 is_stmt 0 view .LVU174
 474 003c 0223     		movs	r3, #2
 475 003e 0093     		str	r3, [sp]
 138:Src/MCUSetup.c ****   sConfig.SingleDiff = ADC_SINGLE_ENDED;
 476              		.loc 1 138 3 is_stmt 1 view .LVU175
 138:Src/MCUSetup.c ****   sConfig.SingleDiff = ADC_SINGLE_ENDED;
 477              		.loc 1 138 16 is_stmt 0 view .LVU176
 478 0040 0196     		str	r6, [sp, #4]
 139:Src/MCUSetup.c ****   sConfig.SamplingTime = ADC_SAMPLETIME_1CYCLE_5;
 479              		.loc 1 139 3 is_stmt 1 view .LVU177
 139:Src/MCUSetup.c ****   sConfig.SamplingTime = ADC_SAMPLETIME_1CYCLE_5;
 480              		.loc 1 139 22 is_stmt 0 view .LVU178
 481 0042 0394     		str	r4, [sp, #12]
 140:Src/MCUSetup.c ****   sConfig.OffsetNumber = ADC_OFFSET_NONE;
 482              		.loc 1 140 3 is_stmt 1 view .LVU179
 140:Src/MCUSetup.c ****   sConfig.OffsetNumber = ADC_OFFSET_NONE;
 483              		.loc 1 140 24 is_stmt 0 view .LVU180
 484 0044 0294     		str	r4, [sp, #8]
 141:Src/MCUSetup.c ****   sConfig.Offset = 0;
 485              		.loc 1 141 3 is_stmt 1 view .LVU181
 141:Src/MCUSetup.c ****   sConfig.Offset = 0;
 486              		.loc 1 141 24 is_stmt 0 view .LVU182
 487 0046 0494     		str	r4, [sp, #16]
 142:Src/MCUSetup.c ****   if (HAL_ADC_ConfigChannel(&hadc2, &sConfig) != HAL_OK) {
 488              		.loc 1 142 3 is_stmt 1 view .LVU183
 142:Src/MCUSetup.c ****   if (HAL_ADC_ConfigChannel(&hadc2, &sConfig) != HAL_OK) {
ARM GAS  /var/folders/hg/yd2wmrcs4nb8mlpb2c051fww0000gn/T//cc23ui6t.s 			page 18


 489              		.loc 1 142 18 is_stmt 0 view .LVU184
 490 0048 0594     		str	r4, [sp, #20]
 143:Src/MCUSetup.c ****     Error_Handler();
 491              		.loc 1 143 3 is_stmt 1 view .LVU185
 143:Src/MCUSetup.c ****     Error_Handler();
 492              		.loc 1 143 7 is_stmt 0 view .LVU186
 493 004a 6946     		mov	r1, sp
 494 004c 2846     		mov	r0, r5
 495 004e FFF7FEFF 		bl	HAL_ADC_ConfigChannel
 496              	.LVL12:
 149:Src/MCUSetup.c **** 
 497              		.loc 1 149 1 view .LVU187
 498 0052 06B0     		add	sp, sp, #24
 499              	.LCFI8:
 500              		.cfi_def_cfa_offset 16
 501              		@ sp needed
 502 0054 70BD     		pop	{r4, r5, r6, pc}
 503              	.L12:
 504 0056 00BF     		.align	2
 505              	.L11:
 506 0058 00000000 		.word	hadc2
 507 005c 00010050 		.word	1342177536
 508              		.cfi_endproc
 509              	.LFE128:
 511              		.section	.text.MX_ADC3_Init,"ax",%progbits
 512              		.align	1
 513              		.syntax unified
 514              		.thumb
 515              		.thumb_func
 516              		.fpu fpv4-sp-d16
 518              	MX_ADC3_Init:
 519              	.LFB129:
 156:Src/MCUSetup.c **** 
 520              		.loc 1 156 32 is_stmt 1 view -0
 521              		.cfi_startproc
 522              		@ args = 0, pretend = 0, frame = 40
 523              		@ frame_needed = 0, uses_anonymous_args = 0
 524 0000 70B5     		push	{r4, r5, r6, lr}
 525              	.LCFI9:
 526              		.cfi_def_cfa_offset 16
 527              		.cfi_offset 4, -16
 528              		.cfi_offset 5, -12
 529              		.cfi_offset 6, -8
 530              		.cfi_offset 14, -4
 531 0002 8AB0     		sub	sp, sp, #40
 532              	.LCFI10:
 533              		.cfi_def_cfa_offset 56
 162:Src/MCUSetup.c ****   ADC_ChannelConfTypeDef sConfig = {0};
 534              		.loc 1 162 3 view .LVU189
 162:Src/MCUSetup.c ****   ADC_ChannelConfTypeDef sConfig = {0};
 535              		.loc 1 162 24 is_stmt 0 view .LVU190
 536 0004 0024     		movs	r4, #0
 537 0006 0794     		str	r4, [sp, #28]
 538 0008 0894     		str	r4, [sp, #32]
 539 000a 0994     		str	r4, [sp, #36]
 163:Src/MCUSetup.c **** 
 540              		.loc 1 163 3 is_stmt 1 view .LVU191
ARM GAS  /var/folders/hg/yd2wmrcs4nb8mlpb2c051fww0000gn/T//cc23ui6t.s 			page 19


 163:Src/MCUSetup.c **** 
 541              		.loc 1 163 26 is_stmt 0 view .LVU192
 542 000c 0194     		str	r4, [sp, #4]
 543 000e 0294     		str	r4, [sp, #8]
 544 0010 0394     		str	r4, [sp, #12]
 545 0012 0494     		str	r4, [sp, #16]
 546 0014 0594     		str	r4, [sp, #20]
 547 0016 0694     		str	r4, [sp, #24]
 170:Src/MCUSetup.c ****   hadc3.Init.ClockPrescaler = ADC_CLOCK_ASYNC_DIV1;
 548              		.loc 1 170 3 is_stmt 1 view .LVU193
 170:Src/MCUSetup.c ****   hadc3.Init.ClockPrescaler = ADC_CLOCK_ASYNC_DIV1;
 549              		.loc 1 170 18 is_stmt 0 view .LVU194
 550 0018 124D     		ldr	r5, .L15
 551 001a 134B     		ldr	r3, .L15+4
 552 001c 2B60     		str	r3, [r5]
 171:Src/MCUSetup.c ****   hadc3.Init.Resolution = ADC_RESOLUTION_12B;
 553              		.loc 1 171 3 is_stmt 1 view .LVU195
 171:Src/MCUSetup.c ****   hadc3.Init.Resolution = ADC_RESOLUTION_12B;
 554              		.loc 1 171 29 is_stmt 0 view .LVU196
 555 001e 6C60     		str	r4, [r5, #4]
 172:Src/MCUSetup.c ****   hadc3.Init.ScanConvMode = ADC_SCAN_DISABLE;
 556              		.loc 1 172 3 is_stmt 1 view .LVU197
 172:Src/MCUSetup.c ****   hadc3.Init.ScanConvMode = ADC_SCAN_DISABLE;
 557              		.loc 1 172 25 is_stmt 0 view .LVU198
 558 0020 AC60     		str	r4, [r5, #8]
 173:Src/MCUSetup.c ****   hadc3.Init.ContinuousConvMode = DISABLE;
 559              		.loc 1 173 3 is_stmt 1 view .LVU199
 173:Src/MCUSetup.c ****   hadc3.Init.ContinuousConvMode = DISABLE;
 560              		.loc 1 173 27 is_stmt 0 view .LVU200
 561 0022 2C61     		str	r4, [r5, #16]
 174:Src/MCUSetup.c ****   hadc3.Init.DiscontinuousConvMode = DISABLE;
 562              		.loc 1 174 3 is_stmt 1 view .LVU201
 174:Src/MCUSetup.c ****   hadc3.Init.DiscontinuousConvMode = DISABLE;
 563              		.loc 1 174 33 is_stmt 0 view .LVU202
 564 0024 EC61     		str	r4, [r5, #28]
 175:Src/MCUSetup.c ****   hadc3.Init.ExternalTrigConvEdge = ADC_EXTERNALTRIGCONVEDGE_NONE;
 565              		.loc 1 175 3 is_stmt 1 view .LVU203
 175:Src/MCUSetup.c ****   hadc3.Init.ExternalTrigConvEdge = ADC_EXTERNALTRIGCONVEDGE_NONE;
 566              		.loc 1 175 36 is_stmt 0 view .LVU204
 567 0026 6C62     		str	r4, [r5, #36]
 176:Src/MCUSetup.c ****   hadc3.Init.ExternalTrigConv = ADC_SOFTWARE_START;
 568              		.loc 1 176 3 is_stmt 1 view .LVU205
 176:Src/MCUSetup.c ****   hadc3.Init.ExternalTrigConv = ADC_SOFTWARE_START;
 569              		.loc 1 176 35 is_stmt 0 view .LVU206
 570 0028 2C63     		str	r4, [r5, #48]
 177:Src/MCUSetup.c ****   hadc3.Init.DataAlign = ADC_DATAALIGN_RIGHT;
 571              		.loc 1 177 3 is_stmt 1 view .LVU207
 177:Src/MCUSetup.c ****   hadc3.Init.DataAlign = ADC_DATAALIGN_RIGHT;
 572              		.loc 1 177 31 is_stmt 0 view .LVU208
 573 002a 0126     		movs	r6, #1
 574 002c EE62     		str	r6, [r5, #44]
 178:Src/MCUSetup.c ****   hadc3.Init.NbrOfConversion = 1;
 575              		.loc 1 178 3 is_stmt 1 view .LVU209
 178:Src/MCUSetup.c ****   hadc3.Init.NbrOfConversion = 1;
 576              		.loc 1 178 24 is_stmt 0 view .LVU210
 577 002e EC60     		str	r4, [r5, #12]
 179:Src/MCUSetup.c ****   hadc3.Init.DMAContinuousRequests = DISABLE;
ARM GAS  /var/folders/hg/yd2wmrcs4nb8mlpb2c051fww0000gn/T//cc23ui6t.s 			page 20


 578              		.loc 1 179 3 is_stmt 1 view .LVU211
 179:Src/MCUSetup.c ****   hadc3.Init.DMAContinuousRequests = DISABLE;
 579              		.loc 1 179 30 is_stmt 0 view .LVU212
 580 0030 2E62     		str	r6, [r5, #32]
 180:Src/MCUSetup.c ****   hadc3.Init.EOCSelection = ADC_EOC_SINGLE_CONV;
 581              		.loc 1 180 3 is_stmt 1 view .LVU213
 180:Src/MCUSetup.c ****   hadc3.Init.EOCSelection = ADC_EOC_SINGLE_CONV;
 582              		.loc 1 180 36 is_stmt 0 view .LVU214
 583 0032 6C63     		str	r4, [r5, #52]
 181:Src/MCUSetup.c ****   hadc3.Init.LowPowerAutoWait = DISABLE;
 584              		.loc 1 181 3 is_stmt 1 view .LVU215
 181:Src/MCUSetup.c ****   hadc3.Init.LowPowerAutoWait = DISABLE;
 585              		.loc 1 181 27 is_stmt 0 view .LVU216
 586 0034 0423     		movs	r3, #4
 587 0036 6B61     		str	r3, [r5, #20]
 182:Src/MCUSetup.c ****   hadc3.Init.Overrun = ADC_OVR_DATA_OVERWRITTEN;
 588              		.loc 1 182 3 is_stmt 1 view .LVU217
 182:Src/MCUSetup.c ****   hadc3.Init.Overrun = ADC_OVR_DATA_OVERWRITTEN;
 589              		.loc 1 182 31 is_stmt 0 view .LVU218
 590 0038 AC61     		str	r4, [r5, #24]
 183:Src/MCUSetup.c ****   if (HAL_ADC_Init(&hadc3) != HAL_OK) {
 591              		.loc 1 183 3 is_stmt 1 view .LVU219
 183:Src/MCUSetup.c ****   if (HAL_ADC_Init(&hadc3) != HAL_OK) {
 592              		.loc 1 183 22 is_stmt 0 view .LVU220
 593 003a AC63     		str	r4, [r5, #56]
 184:Src/MCUSetup.c ****     Error_Handler();
 594              		.loc 1 184 3 is_stmt 1 view .LVU221
 184:Src/MCUSetup.c ****     Error_Handler();
 595              		.loc 1 184 7 is_stmt 0 view .LVU222
 596 003c 2846     		mov	r0, r5
 597 003e FFF7FEFF 		bl	HAL_ADC_Init
 598              	.LVL13:
 189:Src/MCUSetup.c ****   if (HAL_ADCEx_MultiModeConfigChannel(&hadc3, &multimode) != HAL_OK) {
 599              		.loc 1 189 3 is_stmt 1 view .LVU223
 189:Src/MCUSetup.c ****   if (HAL_ADCEx_MultiModeConfigChannel(&hadc3, &multimode) != HAL_OK) {
 600              		.loc 1 189 18 is_stmt 0 view .LVU224
 601 0042 0794     		str	r4, [sp, #28]
 190:Src/MCUSetup.c ****     Error_Handler();
 602              		.loc 1 190 3 is_stmt 1 view .LVU225
 190:Src/MCUSetup.c ****     Error_Handler();
 603              		.loc 1 190 7 is_stmt 0 view .LVU226
 604 0044 07A9     		add	r1, sp, #28
 605 0046 2846     		mov	r0, r5
 606 0048 FFF7FEFF 		bl	HAL_ADCEx_MultiModeConfigChannel
 607              	.LVL14:
 195:Src/MCUSetup.c ****   sConfig.Rank = ADC_REGULAR_RANK_1;
 608              		.loc 1 195 3 is_stmt 1 view .LVU227
 195:Src/MCUSetup.c ****   sConfig.Rank = ADC_REGULAR_RANK_1;
 609              		.loc 1 195 19 is_stmt 0 view .LVU228
 610 004c 0196     		str	r6, [sp, #4]
 196:Src/MCUSetup.c ****   sConfig.SingleDiff = ADC_SINGLE_ENDED;
 611              		.loc 1 196 3 is_stmt 1 view .LVU229
 196:Src/MCUSetup.c ****   sConfig.SingleDiff = ADC_SINGLE_ENDED;
 612              		.loc 1 196 16 is_stmt 0 view .LVU230
 613 004e 0296     		str	r6, [sp, #8]
 197:Src/MCUSetup.c ****   sConfig.SamplingTime = ADC_SAMPLETIME_1CYCLE_5;
 614              		.loc 1 197 3 is_stmt 1 view .LVU231
ARM GAS  /var/folders/hg/yd2wmrcs4nb8mlpb2c051fww0000gn/T//cc23ui6t.s 			page 21


 197:Src/MCUSetup.c ****   sConfig.SamplingTime = ADC_SAMPLETIME_1CYCLE_5;
 615              		.loc 1 197 22 is_stmt 0 view .LVU232
 616 0050 0494     		str	r4, [sp, #16]
 198:Src/MCUSetup.c ****   sConfig.OffsetNumber = ADC_OFFSET_NONE;
 617              		.loc 1 198 3 is_stmt 1 view .LVU233
 198:Src/MCUSetup.c ****   sConfig.OffsetNumber = ADC_OFFSET_NONE;
 618              		.loc 1 198 24 is_stmt 0 view .LVU234
 619 0052 0394     		str	r4, [sp, #12]
 199:Src/MCUSetup.c ****   sConfig.Offset = 0;
 620              		.loc 1 199 3 is_stmt 1 view .LVU235
 199:Src/MCUSetup.c ****   sConfig.Offset = 0;
 621              		.loc 1 199 24 is_stmt 0 view .LVU236
 622 0054 0594     		str	r4, [sp, #20]
 200:Src/MCUSetup.c ****   if (HAL_ADC_ConfigChannel(&hadc3, &sConfig) != HAL_OK) {
 623              		.loc 1 200 3 is_stmt 1 view .LVU237
 200:Src/MCUSetup.c ****   if (HAL_ADC_ConfigChannel(&hadc3, &sConfig) != HAL_OK) {
 624              		.loc 1 200 18 is_stmt 0 view .LVU238
 625 0056 0694     		str	r4, [sp, #24]
 201:Src/MCUSetup.c ****     Error_Handler();
 626              		.loc 1 201 3 is_stmt 1 view .LVU239
 201:Src/MCUSetup.c ****     Error_Handler();
 627              		.loc 1 201 7 is_stmt 0 view .LVU240
 628 0058 01A9     		add	r1, sp, #4
 629 005a 2846     		mov	r0, r5
 630 005c FFF7FEFF 		bl	HAL_ADC_ConfigChannel
 631              	.LVL15:
 207:Src/MCUSetup.c **** 
 632              		.loc 1 207 1 view .LVU241
 633 0060 0AB0     		add	sp, sp, #40
 634              	.LCFI11:
 635              		.cfi_def_cfa_offset 16
 636              		@ sp needed
 637 0062 70BD     		pop	{r4, r5, r6, pc}
 638              	.L16:
 639              		.align	2
 640              	.L15:
 641 0064 00000000 		.word	hadc3
 642 0068 00040050 		.word	1342178304
 643              		.cfi_endproc
 644              	.LFE129:
 646              		.section	.text.MX_SPI2_Init,"ax",%progbits
 647              		.align	1
 648              		.syntax unified
 649              		.thumb
 650              		.thumb_func
 651              		.fpu fpv4-sp-d16
 653              	MX_SPI2_Init:
 654              	.LFB131:
 251:Src/MCUSetup.c **** 
 655              		.loc 1 251 32 is_stmt 1 view -0
 656              		.cfi_startproc
 657              		@ args = 0, pretend = 0, frame = 0
 658              		@ frame_needed = 0, uses_anonymous_args = 0
 659 0000 08B5     		push	{r3, lr}
 660              	.LCFI12:
 661              		.cfi_def_cfa_offset 8
 662              		.cfi_offset 3, -8
ARM GAS  /var/folders/hg/yd2wmrcs4nb8mlpb2c051fww0000gn/T//cc23ui6t.s 			page 22


 663              		.cfi_offset 14, -4
 261:Src/MCUSetup.c ****   hspi2.Init.Mode = SPI_MODE_MASTER;
 664              		.loc 1 261 3 view .LVU243
 261:Src/MCUSetup.c ****   hspi2.Init.Mode = SPI_MODE_MASTER;
 665              		.loc 1 261 18 is_stmt 0 view .LVU244
 666 0002 0F48     		ldr	r0, .L19
 667 0004 0F4B     		ldr	r3, .L19+4
 668 0006 0360     		str	r3, [r0]
 262:Src/MCUSetup.c ****   hspi2.Init.Direction = SPI_DIRECTION_2LINES;
 669              		.loc 1 262 3 is_stmt 1 view .LVU245
 262:Src/MCUSetup.c ****   hspi2.Init.Direction = SPI_DIRECTION_2LINES;
 670              		.loc 1 262 19 is_stmt 0 view .LVU246
 671 0008 4FF48273 		mov	r3, #260
 672 000c 4360     		str	r3, [r0, #4]
 263:Src/MCUSetup.c ****   hspi2.Init.DataSize = SPI_DATASIZE_13BIT; // Length of SID_WORD which contains address and data
 673              		.loc 1 263 3 is_stmt 1 view .LVU247
 263:Src/MCUSetup.c ****   hspi2.Init.DataSize = SPI_DATASIZE_13BIT; // Length of SID_WORD which contains address and data
 674              		.loc 1 263 24 is_stmt 0 view .LVU248
 675 000e 0023     		movs	r3, #0
 676 0010 8360     		str	r3, [r0, #8]
 264:Src/MCUSetup.c ****   hspi2.Init.CLKPolarity = SPI_POLARITY_LOW;
 677              		.loc 1 264 3 is_stmt 1 view .LVU249
 264:Src/MCUSetup.c ****   hspi2.Init.CLKPolarity = SPI_POLARITY_LOW;
 678              		.loc 1 264 23 is_stmt 0 view .LVU250
 679 0012 4FF44062 		mov	r2, #3072
 680 0016 C260     		str	r2, [r0, #12]
 265:Src/MCUSetup.c ****   hspi2.Init.CLKPhase = SPI_PHASE_1EDGE;
 681              		.loc 1 265 3 is_stmt 1 view .LVU251
 265:Src/MCUSetup.c ****   hspi2.Init.CLKPhase = SPI_PHASE_1EDGE;
 682              		.loc 1 265 26 is_stmt 0 view .LVU252
 683 0018 0361     		str	r3, [r0, #16]
 266:Src/MCUSetup.c ****   hspi2.Init.NSS = SPI_NSS_SOFT; // We are going to control the CS pin ourselves
 684              		.loc 1 266 3 is_stmt 1 view .LVU253
 266:Src/MCUSetup.c ****   hspi2.Init.NSS = SPI_NSS_SOFT; // We are going to control the CS pin ourselves
 685              		.loc 1 266 23 is_stmt 0 view .LVU254
 686 001a 4361     		str	r3, [r0, #20]
 267:Src/MCUSetup.c ****   hspi2.Init.BaudRatePrescaler =
 687              		.loc 1 267 3 is_stmt 1 view .LVU255
 267:Src/MCUSetup.c ****   hspi2.Init.BaudRatePrescaler =
 688              		.loc 1 267 18 is_stmt 0 view .LVU256
 689 001c 4FF40072 		mov	r2, #512
 690 0020 8261     		str	r2, [r0, #24]
 268:Src/MCUSetup.c ****       SPI_BAUDRATEPRESCALER_64; // So SPI will run at 1 MHz with a system clock
 691              		.loc 1 268 3 is_stmt 1 view .LVU257
 268:Src/MCUSetup.c ****       SPI_BAUDRATEPRESCALER_64; // So SPI will run at 1 MHz with a system clock
 692              		.loc 1 268 32 is_stmt 0 view .LVU258
 693 0022 2822     		movs	r2, #40
 694 0024 C261     		str	r2, [r0, #28]
 271:Src/MCUSetup.c ****   hspi2.Init.TIMode = SPI_TIMODE_DISABLE;
 695              		.loc 1 271 3 is_stmt 1 view .LVU259
 271:Src/MCUSetup.c ****   hspi2.Init.TIMode = SPI_TIMODE_DISABLE;
 696              		.loc 1 271 23 is_stmt 0 view .LVU260
 697 0026 8022     		movs	r2, #128
 698 0028 0262     		str	r2, [r0, #32]
 272:Src/MCUSetup.c ****   hspi2.Init.CRCCalculation = SPI_CRCCALCULATION_DISABLE;
 699              		.loc 1 272 3 is_stmt 1 view .LVU261
 272:Src/MCUSetup.c ****   hspi2.Init.CRCCalculation = SPI_CRCCALCULATION_DISABLE;
ARM GAS  /var/folders/hg/yd2wmrcs4nb8mlpb2c051fww0000gn/T//cc23ui6t.s 			page 23


 700              		.loc 1 272 21 is_stmt 0 view .LVU262
 701 002a 4362     		str	r3, [r0, #36]
 273:Src/MCUSetup.c ****   hspi2.Init.CRCPolynomial = 7;
 702              		.loc 1 273 3 is_stmt 1 view .LVU263
 273:Src/MCUSetup.c ****   hspi2.Init.CRCPolynomial = 7;
 703              		.loc 1 273 29 is_stmt 0 view .LVU264
 704 002c 8362     		str	r3, [r0, #40]
 274:Src/MCUSetup.c ****   hspi2.Init.CRCLength = SPI_CRC_LENGTH_DATASIZE;
 705              		.loc 1 274 3 is_stmt 1 view .LVU265
 274:Src/MCUSetup.c ****   hspi2.Init.CRCLength = SPI_CRC_LENGTH_DATASIZE;
 706              		.loc 1 274 28 is_stmt 0 view .LVU266
 707 002e 0722     		movs	r2, #7
 708 0030 C262     		str	r2, [r0, #44]
 275:Src/MCUSetup.c ****   hspi2.Init.NSSPMode = SPI_NSS_PULSE_ENABLE;
 709              		.loc 1 275 3 is_stmt 1 view .LVU267
 275:Src/MCUSetup.c ****   hspi2.Init.NSSPMode = SPI_NSS_PULSE_ENABLE;
 710              		.loc 1 275 24 is_stmt 0 view .LVU268
 711 0032 0363     		str	r3, [r0, #48]
 276:Src/MCUSetup.c ****   if (HAL_SPI_Init(&hspi2) != HAL_OK) {
 712              		.loc 1 276 3 is_stmt 1 view .LVU269
 276:Src/MCUSetup.c ****   if (HAL_SPI_Init(&hspi2) != HAL_OK) {
 713              		.loc 1 276 23 is_stmt 0 view .LVU270
 714 0034 0823     		movs	r3, #8
 715 0036 4363     		str	r3, [r0, #52]
 277:Src/MCUSetup.c ****     Error_Handler();
 716              		.loc 1 277 3 is_stmt 1 view .LVU271
 277:Src/MCUSetup.c ****     Error_Handler();
 717              		.loc 1 277 7 is_stmt 0 view .LVU272
 718 0038 FFF7FEFF 		bl	HAL_SPI_Init
 719              	.LVL16:
 283:Src/MCUSetup.c **** 
 720              		.loc 1 283 1 view .LVU273
 721 003c 08BD     		pop	{r3, pc}
 722              	.L20:
 723 003e 00BF     		.align	2
 724              	.L19:
 725 0040 00000000 		.word	hspi2
 726 0044 00380040 		.word	1073756160
 727              		.cfi_endproc
 728              	.LFE131:
 730              		.section	.text.MX_USART1_UART_Init,"ax",%progbits
 731              		.align	1
 732              		.syntax unified
 733              		.thumb
 734              		.thumb_func
 735              		.fpu fpv4-sp-d16
 737              	MX_USART1_UART_Init:
 738              	.LFB132:
 290:Src/MCUSetup.c **** 
 739              		.loc 1 290 39 is_stmt 1 view -0
 740              		.cfi_startproc
 741              		@ args = 0, pretend = 0, frame = 0
 742              		@ frame_needed = 0, uses_anonymous_args = 0
 743 0000 08B5     		push	{r3, lr}
 744              	.LCFI13:
 745              		.cfi_def_cfa_offset 8
 746              		.cfi_offset 3, -8
ARM GAS  /var/folders/hg/yd2wmrcs4nb8mlpb2c051fww0000gn/T//cc23ui6t.s 			page 24


 747              		.cfi_offset 14, -4
 299:Src/MCUSetup.c ****   huart1.Init.BaudRate = 38400;
 748              		.loc 1 299 3 view .LVU275
 299:Src/MCUSetup.c ****   huart1.Init.BaudRate = 38400;
 749              		.loc 1 299 19 is_stmt 0 view .LVU276
 750 0002 0948     		ldr	r0, .L23
 751 0004 094B     		ldr	r3, .L23+4
 752 0006 0360     		str	r3, [r0]
 300:Src/MCUSetup.c ****   huart1.Init.WordLength = UART_WORDLENGTH_8B;
 753              		.loc 1 300 3 is_stmt 1 view .LVU277
 300:Src/MCUSetup.c ****   huart1.Init.WordLength = UART_WORDLENGTH_8B;
 754              		.loc 1 300 24 is_stmt 0 view .LVU278
 755 0008 4FF41643 		mov	r3, #38400
 756 000c 4360     		str	r3, [r0, #4]
 301:Src/MCUSetup.c ****   huart1.Init.StopBits = UART_STOPBITS_1;
 757              		.loc 1 301 3 is_stmt 1 view .LVU279
 301:Src/MCUSetup.c ****   huart1.Init.StopBits = UART_STOPBITS_1;
 758              		.loc 1 301 26 is_stmt 0 view .LVU280
 759 000e 0023     		movs	r3, #0
 760 0010 8360     		str	r3, [r0, #8]
 302:Src/MCUSetup.c ****   huart1.Init.Parity = UART_PARITY_NONE;
 761              		.loc 1 302 3 is_stmt 1 view .LVU281
 302:Src/MCUSetup.c ****   huart1.Init.Parity = UART_PARITY_NONE;
 762              		.loc 1 302 24 is_stmt 0 view .LVU282
 763 0012 C360     		str	r3, [r0, #12]
 303:Src/MCUSetup.c ****   huart1.Init.Mode = UART_MODE_TX_RX;
 764              		.loc 1 303 3 is_stmt 1 view .LVU283
 303:Src/MCUSetup.c ****   huart1.Init.Mode = UART_MODE_TX_RX;
 765              		.loc 1 303 22 is_stmt 0 view .LVU284
 766 0014 0361     		str	r3, [r0, #16]
 304:Src/MCUSetup.c ****   huart1.Init.HwFlowCtl = UART_HWCONTROL_NONE;
 767              		.loc 1 304 3 is_stmt 1 view .LVU285
 304:Src/MCUSetup.c ****   huart1.Init.HwFlowCtl = UART_HWCONTROL_NONE;
 768              		.loc 1 304 20 is_stmt 0 view .LVU286
 769 0016 0C22     		movs	r2, #12
 770 0018 4261     		str	r2, [r0, #20]
 305:Src/MCUSetup.c ****   huart1.Init.OverSampling = UART_OVERSAMPLING_16;
 771              		.loc 1 305 3 is_stmt 1 view .LVU287
 305:Src/MCUSetup.c ****   huart1.Init.OverSampling = UART_OVERSAMPLING_16;
 772              		.loc 1 305 25 is_stmt 0 view .LVU288
 773 001a 8361     		str	r3, [r0, #24]
 306:Src/MCUSetup.c ****   huart1.Init.OneBitSampling = UART_ONE_BIT_SAMPLE_DISABLE;
 774              		.loc 1 306 3 is_stmt 1 view .LVU289
 306:Src/MCUSetup.c ****   huart1.Init.OneBitSampling = UART_ONE_BIT_SAMPLE_DISABLE;
 775              		.loc 1 306 28 is_stmt 0 view .LVU290
 776 001c C361     		str	r3, [r0, #28]
 307:Src/MCUSetup.c ****   huart1.AdvancedInit.AdvFeatureInit = UART_ADVFEATURE_NO_INIT;
 777              		.loc 1 307 3 is_stmt 1 view .LVU291
 307:Src/MCUSetup.c ****   huart1.AdvancedInit.AdvFeatureInit = UART_ADVFEATURE_NO_INIT;
 778              		.loc 1 307 30 is_stmt 0 view .LVU292
 779 001e 0362     		str	r3, [r0, #32]
 308:Src/MCUSetup.c ****   if (HAL_UART_Init(&huart1) != HAL_OK) {
 780              		.loc 1 308 3 is_stmt 1 view .LVU293
 308:Src/MCUSetup.c ****   if (HAL_UART_Init(&huart1) != HAL_OK) {
 781              		.loc 1 308 38 is_stmt 0 view .LVU294
 782 0020 4362     		str	r3, [r0, #36]
 309:Src/MCUSetup.c ****     Error_Handler();
ARM GAS  /var/folders/hg/yd2wmrcs4nb8mlpb2c051fww0000gn/T//cc23ui6t.s 			page 25


 783              		.loc 1 309 3 is_stmt 1 view .LVU295
 309:Src/MCUSetup.c ****     Error_Handler();
 784              		.loc 1 309 7 is_stmt 0 view .LVU296
 785 0022 FFF7FEFF 		bl	HAL_UART_Init
 786              	.LVL17:
 315:Src/MCUSetup.c **** 
 787              		.loc 1 315 1 view .LVU297
 788 0026 08BD     		pop	{r3, pc}
 789              	.L24:
 790              		.align	2
 791              	.L23:
 792 0028 00000000 		.word	huart1
 793 002c 00380140 		.word	1073821696
 794              		.cfi_endproc
 795              	.LFE132:
 797              		.section	.text.SystemClock_Config,"ax",%progbits
 798              		.align	1
 799              		.global	SystemClock_Config
 800              		.syntax unified
 801              		.thumb
 802              		.thumb_func
 803              		.fpu fpv4-sp-d16
 805              	SystemClock_Config:
 806              	.LFB126:
   4:Src/MCUSetup.c ****   RCC_OscInitTypeDef RCC_OscInitStruct = {0};
 807              		.loc 1 4 31 is_stmt 1 view -0
 808              		.cfi_startproc
 809              		@ args = 0, pretend = 0, frame = 120
 810              		@ frame_needed = 0, uses_anonymous_args = 0
 811 0000 30B5     		push	{r4, r5, lr}
 812              	.LCFI14:
 813              		.cfi_def_cfa_offset 12
 814              		.cfi_offset 4, -12
 815              		.cfi_offset 5, -8
 816              		.cfi_offset 14, -4
 817 0002 9FB0     		sub	sp, sp, #124
 818              	.LCFI15:
 819              		.cfi_def_cfa_offset 136
   5:Src/MCUSetup.c ****   RCC_ClkInitTypeDef RCC_ClkInitStruct = {0};
 820              		.loc 1 5 3 view .LVU299
   5:Src/MCUSetup.c ****   RCC_ClkInitTypeDef RCC_ClkInitStruct = {0};
 821              		.loc 1 5 22 is_stmt 0 view .LVU300
 822 0004 2022     		movs	r2, #32
 823 0006 0021     		movs	r1, #0
 824 0008 15A8     		add	r0, sp, #84
 825 000a FFF7FEFF 		bl	memset
 826              	.LVL18:
   6:Src/MCUSetup.c ****   RCC_PeriphCLKInitTypeDef PeriphClkInit = {0};
 827              		.loc 1 6 3 is_stmt 1 view .LVU301
   6:Src/MCUSetup.c ****   RCC_PeriphCLKInitTypeDef PeriphClkInit = {0};
 828              		.loc 1 6 22 is_stmt 0 view .LVU302
 829 000e 0024     		movs	r4, #0
 830 0010 0F94     		str	r4, [sp, #60]
 831 0012 1094     		str	r4, [sp, #64]
 832 0014 1194     		str	r4, [sp, #68]
 833 0016 1294     		str	r4, [sp, #72]
 834 0018 1394     		str	r4, [sp, #76]
ARM GAS  /var/folders/hg/yd2wmrcs4nb8mlpb2c051fww0000gn/T//cc23ui6t.s 			page 26


   7:Src/MCUSetup.c **** 
 835              		.loc 1 7 3 is_stmt 1 view .LVU303
   7:Src/MCUSetup.c **** 
 836              		.loc 1 7 28 is_stmt 0 view .LVU304
 837 001a 3C22     		movs	r2, #60
 838 001c 2146     		mov	r1, r4
 839 001e 6846     		mov	r0, sp
 840 0020 FFF7FEFF 		bl	memset
 841              	.LVL19:
  11:Src/MCUSetup.c ****   RCC_OscInitStruct.HSIState = RCC_HSI_ON;
 842              		.loc 1 11 3 is_stmt 1 view .LVU305
  11:Src/MCUSetup.c ****   RCC_OscInitStruct.HSIState = RCC_HSI_ON;
 843              		.loc 1 11 36 is_stmt 0 view .LVU306
 844 0024 0225     		movs	r5, #2
 845 0026 1495     		str	r5, [sp, #80]
  12:Src/MCUSetup.c ****   RCC_OscInitStruct.HSICalibrationValue = RCC_HSICALIBRATION_DEFAULT;
 846              		.loc 1 12 3 is_stmt 1 view .LVU307
  12:Src/MCUSetup.c ****   RCC_OscInitStruct.HSICalibrationValue = RCC_HSICALIBRATION_DEFAULT;
 847              		.loc 1 12 30 is_stmt 0 view .LVU308
 848 0028 0123     		movs	r3, #1
 849 002a 1893     		str	r3, [sp, #96]
  13:Src/MCUSetup.c ****   RCC_OscInitStruct.PLL.PLLState = RCC_PLL_ON;
 850              		.loc 1 13 3 is_stmt 1 view .LVU309
  13:Src/MCUSetup.c ****   RCC_OscInitStruct.PLL.PLLState = RCC_PLL_ON;
 851              		.loc 1 13 41 is_stmt 0 view .LVU310
 852 002c 1023     		movs	r3, #16
 853 002e 1993     		str	r3, [sp, #100]
  14:Src/MCUSetup.c ****   RCC_OscInitStruct.PLL.PLLSource = RCC_PLLSOURCE_HSI;
 854              		.loc 1 14 3 is_stmt 1 view .LVU311
  14:Src/MCUSetup.c ****   RCC_OscInitStruct.PLL.PLLSource = RCC_PLLSOURCE_HSI;
 855              		.loc 1 14 34 is_stmt 0 view .LVU312
 856 0030 1B95     		str	r5, [sp, #108]
  15:Src/MCUSetup.c ****   RCC_OscInitStruct.PLL.PLLMUL = RCC_PLL_MUL16;
 857              		.loc 1 15 3 is_stmt 1 view .LVU313
  16:Src/MCUSetup.c ****   if (HAL_RCC_OscConfig(&RCC_OscInitStruct) != HAL_OK) {
 858              		.loc 1 16 3 view .LVU314
  16:Src/MCUSetup.c ****   if (HAL_RCC_OscConfig(&RCC_OscInitStruct) != HAL_OK) {
 859              		.loc 1 16 32 is_stmt 0 view .LVU315
 860 0032 4FF46013 		mov	r3, #3670016
 861 0036 1D93     		str	r3, [sp, #116]
  17:Src/MCUSetup.c ****     Error_Handler();
 862              		.loc 1 17 3 is_stmt 1 view .LVU316
  17:Src/MCUSetup.c ****     Error_Handler();
 863              		.loc 1 17 7 is_stmt 0 view .LVU317
 864 0038 14A8     		add	r0, sp, #80
 865 003a FFF7FEFF 		bl	HAL_RCC_OscConfig
 866              	.LVL20:
  22:Src/MCUSetup.c ****                                 RCC_CLOCKTYPE_PCLK1 | RCC_CLOCKTYPE_PCLK2;
 867              		.loc 1 22 3 is_stmt 1 view .LVU318
  22:Src/MCUSetup.c ****                                 RCC_CLOCKTYPE_PCLK1 | RCC_CLOCKTYPE_PCLK2;
 868              		.loc 1 22 31 is_stmt 0 view .LVU319
 869 003e 0F23     		movs	r3, #15
 870 0040 0F93     		str	r3, [sp, #60]
  24:Src/MCUSetup.c ****   RCC_ClkInitStruct.AHBCLKDivider = RCC_SYSCLK_DIV1;
 871              		.loc 1 24 3 is_stmt 1 view .LVU320
  24:Src/MCUSetup.c ****   RCC_ClkInitStruct.AHBCLKDivider = RCC_SYSCLK_DIV1;
 872              		.loc 1 24 34 is_stmt 0 view .LVU321
ARM GAS  /var/folders/hg/yd2wmrcs4nb8mlpb2c051fww0000gn/T//cc23ui6t.s 			page 27


 873 0042 1095     		str	r5, [sp, #64]
  25:Src/MCUSetup.c ****   RCC_ClkInitStruct.APB1CLKDivider = RCC_HCLK_DIV2;
 874              		.loc 1 25 3 is_stmt 1 view .LVU322
  25:Src/MCUSetup.c ****   RCC_ClkInitStruct.APB1CLKDivider = RCC_HCLK_DIV2;
 875              		.loc 1 25 35 is_stmt 0 view .LVU323
 876 0044 1194     		str	r4, [sp, #68]
  26:Src/MCUSetup.c ****   RCC_ClkInitStruct.APB2CLKDivider = RCC_HCLK_DIV1;
 877              		.loc 1 26 3 is_stmt 1 view .LVU324
  26:Src/MCUSetup.c ****   RCC_ClkInitStruct.APB2CLKDivider = RCC_HCLK_DIV1;
 878              		.loc 1 26 36 is_stmt 0 view .LVU325
 879 0046 4FF48063 		mov	r3, #1024
 880 004a 1293     		str	r3, [sp, #72]
  27:Src/MCUSetup.c **** 
 881              		.loc 1 27 3 is_stmt 1 view .LVU326
  27:Src/MCUSetup.c **** 
 882              		.loc 1 27 36 is_stmt 0 view .LVU327
 883 004c 1394     		str	r4, [sp, #76]
  29:Src/MCUSetup.c ****     Error_Handler();
 884              		.loc 1 29 3 is_stmt 1 view .LVU328
  29:Src/MCUSetup.c ****     Error_Handler();
 885              		.loc 1 29 7 is_stmt 0 view .LVU329
 886 004e 2946     		mov	r1, r5
 887 0050 0FA8     		add	r0, sp, #60
 888 0052 FFF7FEFF 		bl	HAL_RCC_ClockConfig
 889              	.LVL21:
  32:Src/MCUSetup.c ****       RCC_PERIPHCLK_USART1 | RCC_PERIPHCLK_ADC12 | RCC_PERIPHCLK_ADC34;
 890              		.loc 1 32 3 is_stmt 1 view .LVU330
  32:Src/MCUSetup.c ****       RCC_PERIPHCLK_USART1 | RCC_PERIPHCLK_ADC12 | RCC_PERIPHCLK_ADC34;
 891              		.loc 1 32 38 is_stmt 0 view .LVU331
 892 0056 40F28113 		movw	r3, #385
 893 005a 0093     		str	r3, [sp]
  34:Src/MCUSetup.c ****   PeriphClkInit.Adc12ClockSelection = RCC_ADC12PLLCLK_DIV1;
 894              		.loc 1 34 3 is_stmt 1 view .LVU332
  34:Src/MCUSetup.c ****   PeriphClkInit.Adc12ClockSelection = RCC_ADC12PLLCLK_DIV1;
 895              		.loc 1 34 38 is_stmt 0 view .LVU333
 896 005c 0294     		str	r4, [sp, #8]
  35:Src/MCUSetup.c ****   PeriphClkInit.Adc34ClockSelection = RCC_ADC34PLLCLK_DIV1;
 897              		.loc 1 35 3 is_stmt 1 view .LVU334
  35:Src/MCUSetup.c ****   PeriphClkInit.Adc34ClockSelection = RCC_ADC34PLLCLK_DIV1;
 898              		.loc 1 35 37 is_stmt 0 view .LVU335
 899 005e 4FF48073 		mov	r3, #256
 900 0062 0993     		str	r3, [sp, #36]
  36:Src/MCUSetup.c ****   if (HAL_RCCEx_PeriphCLKConfig(&PeriphClkInit) != HAL_OK) {
 901              		.loc 1 36 3 is_stmt 1 view .LVU336
  36:Src/MCUSetup.c ****   if (HAL_RCCEx_PeriphCLKConfig(&PeriphClkInit) != HAL_OK) {
 902              		.loc 1 36 37 is_stmt 0 view .LVU337
 903 0064 4FF40053 		mov	r3, #8192
 904 0068 0A93     		str	r3, [sp, #40]
  37:Src/MCUSetup.c ****     Error_Handler();
 905              		.loc 1 37 3 is_stmt 1 view .LVU338
  37:Src/MCUSetup.c ****     Error_Handler();
 906              		.loc 1 37 7 is_stmt 0 view .LVU339
 907 006a 6846     		mov	r0, sp
 908 006c FFF7FEFF 		bl	HAL_RCCEx_PeriphCLKConfig
 909              	.LVL22:
  40:Src/MCUSetup.c **** 
 910              		.loc 1 40 1 view .LVU340
ARM GAS  /var/folders/hg/yd2wmrcs4nb8mlpb2c051fww0000gn/T//cc23ui6t.s 			page 28


 911 0070 1FB0     		add	sp, sp, #124
 912              	.LCFI16:
 913              		.cfi_def_cfa_offset 12
 914              		@ sp needed
 915 0072 30BD     		pop	{r4, r5, pc}
 916              		.cfi_endproc
 917              	.LFE126:
 919              		.section	.text.Error_Handler,"ax",%progbits
 920              		.align	1
 921              		.global	Error_Handler
 922              		.syntax unified
 923              		.thumb
 924              		.thumb_func
 925              		.fpu fpv4-sp-d16
 927              	Error_Handler:
 928              	.LFB134:
 388:Src/MCUSetup.c **** 
 389:Src/MCUSetup.c **** /* USER CODE BEGIN 4 */
 390:Src/MCUSetup.c **** 
 391:Src/MCUSetup.c **** /* USER CODE END 4 */
 392:Src/MCUSetup.c **** 
 393:Src/MCUSetup.c **** /**
 394:Src/MCUSetup.c ****  * @brief  This function is executed in case of error occurrence.
 395:Src/MCUSetup.c ****  * @retval None
 396:Src/MCUSetup.c ****  */
 397:Src/MCUSetup.c **** void Error_Handler(void) {
 929              		.loc 1 397 26 is_stmt 1 view -0
 930              		.cfi_startproc
 931              		@ args = 0, pretend = 0, frame = 0
 932              		@ frame_needed = 0, uses_anonymous_args = 0
 933              		@ link register save eliminated.
 398:Src/MCUSetup.c ****   /* USER CODE BEGIN Error_Handler_Debug */
 399:Src/MCUSetup.c ****   /* User can add his own implementation to report the HAL error return state */
 400:Src/MCUSetup.c **** 
 401:Src/MCUSetup.c ****   /* USER CODE END Error_Handler_Debug */
 402:Src/MCUSetup.c **** }
 934              		.loc 1 402 1 view .LVU342
 935 0000 7047     		bx	lr
 936              		.cfi_endproc
 937              	.LFE134:
 939              		.section	.text.MCU_Setup,"ax",%progbits
 940              		.align	1
 941              		.global	MCU_Setup
 942              		.syntax unified
 943              		.thumb
 944              		.thumb_func
 945              		.fpu fpv4-sp-d16
 947              	MCU_Setup:
 948              	.LFB135:
 403:Src/MCUSetup.c **** 
 404:Src/MCUSetup.c **** void MCU_Setup() {
 949              		.loc 1 404 18 view -0
 950              		.cfi_startproc
 951              		@ args = 0, pretend = 0, frame = 0
 952              		@ frame_needed = 0, uses_anonymous_args = 0
 953 0000 08B5     		push	{r3, lr}
 954              	.LCFI17:
ARM GAS  /var/folders/hg/yd2wmrcs4nb8mlpb2c051fww0000gn/T//cc23ui6t.s 			page 29


 955              		.cfi_def_cfa_offset 8
 956              		.cfi_offset 3, -8
 957              		.cfi_offset 14, -4
 405:Src/MCUSetup.c ****   HAL_Init();
 958              		.loc 1 405 3 view .LVU344
 959 0002 FFF7FEFF 		bl	HAL_Init
 960              	.LVL23:
 406:Src/MCUSetup.c ****   SystemClock_Config();
 961              		.loc 1 406 3 view .LVU345
 962 0006 FFF7FEFF 		bl	SystemClock_Config
 963              	.LVL24:
 407:Src/MCUSetup.c **** 
 408:Src/MCUSetup.c ****   MX_GPIO_Init();
 964              		.loc 1 408 3 view .LVU346
 965 000a FFF7FEFF 		bl	MX_GPIO_Init
 966              	.LVL25:
 409:Src/MCUSetup.c ****   MX_ADC1_Init();
 967              		.loc 1 409 3 view .LVU347
 968 000e FFF7FEFF 		bl	MX_ADC1_Init
 969              	.LVL26:
 410:Src/MCUSetup.c ****   MX_ADC2_Init();
 970              		.loc 1 410 3 view .LVU348
 971 0012 FFF7FEFF 		bl	MX_ADC2_Init
 972              	.LVL27:
 411:Src/MCUSetup.c ****   MX_ADC3_Init();
 973              		.loc 1 411 3 view .LVU349
 974 0016 FFF7FEFF 		bl	MX_ADC3_Init
 975              	.LVL28:
 412:Src/MCUSetup.c ****   MX_SPI2_Init();
 976              		.loc 1 412 3 view .LVU350
 977 001a FFF7FEFF 		bl	MX_SPI2_Init
 978              	.LVL29:
 413:Src/MCUSetup.c ****   MX_USART1_UART_Init();
 979              		.loc 1 413 3 view .LVU351
 980 001e FFF7FEFF 		bl	MX_USART1_UART_Init
 981              	.LVL30:
 414:Src/MCUSetup.c **** }...
 982              		.loc 1 414 1 is_stmt 0 view .LVU352
 983 0022 08BD     		pop	{r3, pc}
 984              		.cfi_endproc
 985              	.LFE135:
 987              		.comm	huart1,112,4
 988              		.comm	hspi2,100,4
 989              		.comm	hspi1,100,4
 990              		.comm	hadc3,84,4
 991              		.comm	hadc2,84,4
 992              		.comm	hadc1,84,4
 993              		.text
 994              	.Letext0:
 995              		.file 2 "/usr/local/gcc_arm/arm-none-eabi/include/machine/_default_types.h"
 996              		.file 3 "/usr/local/gcc_arm/arm-none-eabi/include/sys/_stdint.h"
 997              		.file 4 "Drivers/CMSIS/Include/core_cm4.h"
 998              		.file 5 "Drivers/CMSIS/Device/ST/STM32F3xx/Include/system_stm32f3xx.h"
 999              		.file 6 "Drivers/CMSIS/Device/ST/STM32F3xx/Include/stm32f303xc.h"
 1000              		.file 7 "/usr/local/gcc_arm/arm-none-eabi/include/sys/lock.h"
 1001              		.file 8 "/usr/local/gcc_arm/arm-none-eabi/include/sys/_types.h"
 1002              		.file 9 "/usr/local/gcc_arm/lib/gcc/arm-none-eabi/8.2.1/include/stddef.h"
ARM GAS  /var/folders/hg/yd2wmrcs4nb8mlpb2c051fww0000gn/T//cc23ui6t.s 			page 30


 1003              		.file 10 "/usr/local/gcc_arm/arm-none-eabi/include/sys/reent.h"
 1004              		.file 11 "Drivers/CMSIS/Device/ST/STM32F3xx/Include/stm32f3xx.h"
 1005              		.file 12 "Drivers/STM32F3xx_HAL_Driver/Inc/stm32f3xx_hal_def.h"
 1006              		.file 13 "Drivers/STM32F3xx_HAL_Driver/Inc/stm32f3xx_hal_rcc.h"
 1007              		.file 14 "Drivers/STM32F3xx_HAL_Driver/Inc/stm32f3xx_hal_rcc_ex.h"
 1008              		.file 15 "Drivers/STM32F3xx_HAL_Driver/Inc/stm32f3xx_hal_gpio.h"
 1009              		.file 16 "Drivers/STM32F3xx_HAL_Driver/Inc/stm32f3xx_hal_dma.h"
 1010              		.file 17 "Drivers/STM32F3xx_HAL_Driver/Inc/stm32f3xx_hal_adc_ex.h"
 1011              		.file 18 "Drivers/STM32F3xx_HAL_Driver/Inc/stm32f3xx_hal_adc.h"
 1012              		.file 19 "Drivers/STM32F3xx_HAL_Driver/Inc/stm32f3xx_hal_spi.h"
 1013              		.file 20 "Drivers/STM32F3xx_HAL_Driver/Inc/stm32f3xx_hal_uart.h"
 1014              		.file 21 "Drivers/STM32F3xx_HAL_Driver/Inc/stm32f3xx_hal.h"
 1015              		.file 22 "Inc/MCUSetup.h"
 1016              		.file 23 "<built-in>"
ARM GAS  /var/folders/hg/yd2wmrcs4nb8mlpb2c051fww0000gn/T//cc23ui6t.s 			page 31


DEFINED SYMBOLS
                            *ABS*:0000000000000000 MCUSetup.c
/var/folders/hg/yd2wmrcs4nb8mlpb2c051fww0000gn/T//cc23ui6t.s:18     .text.MX_GPIO_Init:0000000000000000 $t
/var/folders/hg/yd2wmrcs4nb8mlpb2c051fww0000gn/T//cc23ui6t.s:25     .text.MX_GPIO_Init:0000000000000000 MX_GPIO_Init
/var/folders/hg/yd2wmrcs4nb8mlpb2c051fww0000gn/T//cc23ui6t.s:249    .text.MX_GPIO_Init:00000000000000fc $d
/var/folders/hg/yd2wmrcs4nb8mlpb2c051fww0000gn/T//cc23ui6t.s:256    .text.MX_ADC1_Init:0000000000000000 $t
/var/folders/hg/yd2wmrcs4nb8mlpb2c051fww0000gn/T//cc23ui6t.s:262    .text.MX_ADC1_Init:0000000000000000 MX_ADC1_Init
/var/folders/hg/yd2wmrcs4nb8mlpb2c051fww0000gn/T//cc23ui6t.s:385    .text.MX_ADC1_Init:0000000000000068 $d
                            *COM*:0000000000000054 hadc1
/var/folders/hg/yd2wmrcs4nb8mlpb2c051fww0000gn/T//cc23ui6t.s:390    .text.MX_ADC2_Init:0000000000000000 $t
/var/folders/hg/yd2wmrcs4nb8mlpb2c051fww0000gn/T//cc23ui6t.s:396    .text.MX_ADC2_Init:0000000000000000 MX_ADC2_Init
/var/folders/hg/yd2wmrcs4nb8mlpb2c051fww0000gn/T//cc23ui6t.s:506    .text.MX_ADC2_Init:0000000000000058 $d
                            *COM*:0000000000000054 hadc2
/var/folders/hg/yd2wmrcs4nb8mlpb2c051fww0000gn/T//cc23ui6t.s:512    .text.MX_ADC3_Init:0000000000000000 $t
/var/folders/hg/yd2wmrcs4nb8mlpb2c051fww0000gn/T//cc23ui6t.s:518    .text.MX_ADC3_Init:0000000000000000 MX_ADC3_Init
/var/folders/hg/yd2wmrcs4nb8mlpb2c051fww0000gn/T//cc23ui6t.s:641    .text.MX_ADC3_Init:0000000000000064 $d
                            *COM*:0000000000000054 hadc3
/var/folders/hg/yd2wmrcs4nb8mlpb2c051fww0000gn/T//cc23ui6t.s:647    .text.MX_SPI2_Init:0000000000000000 $t
/var/folders/hg/yd2wmrcs4nb8mlpb2c051fww0000gn/T//cc23ui6t.s:653    .text.MX_SPI2_Init:0000000000000000 MX_SPI2_Init
/var/folders/hg/yd2wmrcs4nb8mlpb2c051fww0000gn/T//cc23ui6t.s:725    .text.MX_SPI2_Init:0000000000000040 $d
                            *COM*:0000000000000064 hspi2
/var/folders/hg/yd2wmrcs4nb8mlpb2c051fww0000gn/T//cc23ui6t.s:731    .text.MX_USART1_UART_Init:0000000000000000 $t
/var/folders/hg/yd2wmrcs4nb8mlpb2c051fww0000gn/T//cc23ui6t.s:737    .text.MX_USART1_UART_Init:0000000000000000 MX_USART1_UART_Init
/var/folders/hg/yd2wmrcs4nb8mlpb2c051fww0000gn/T//cc23ui6t.s:792    .text.MX_USART1_UART_Init:0000000000000028 $d
                            *COM*:0000000000000070 huart1
/var/folders/hg/yd2wmrcs4nb8mlpb2c051fww0000gn/T//cc23ui6t.s:798    .text.SystemClock_Config:0000000000000000 $t
/var/folders/hg/yd2wmrcs4nb8mlpb2c051fww0000gn/T//cc23ui6t.s:805    .text.SystemClock_Config:0000000000000000 SystemClock_Config
/var/folders/hg/yd2wmrcs4nb8mlpb2c051fww0000gn/T//cc23ui6t.s:920    .text.Error_Handler:0000000000000000 $t
/var/folders/hg/yd2wmrcs4nb8mlpb2c051fww0000gn/T//cc23ui6t.s:927    .text.Error_Handler:0000000000000000 Error_Handler
/var/folders/hg/yd2wmrcs4nb8mlpb2c051fww0000gn/T//cc23ui6t.s:940    .text.MCU_Setup:0000000000000000 $t
/var/folders/hg/yd2wmrcs4nb8mlpb2c051fww0000gn/T//cc23ui6t.s:947    .text.MCU_Setup:0000000000000000 MCU_Setup
                            *COM*:0000000000000064 hspi1

UNDEFINED SYMBOLS
HAL_GPIO_Init
HAL_ADC_Init
HAL_ADCEx_MultiModeConfigChannel
HAL_ADC_ConfigChannel
HAL_SPI_Init
HAL_UART_Init
memset
HAL_RCC_OscConfig
HAL_RCC_ClockConfig
HAL_RCCEx_PeriphCLKConfig
HAL_Init
