ARM GAS  /var/folders/hg/yd2wmrcs4nb8mlpb2c051fww0000gn/T//ccxSF6k8.s 			page 1


   1              		.cpu cortex-m4
   2              		.eabi_attribute 27, 1
   3              		.eabi_attribute 28, 1
   4              		.eabi_attribute 20, 1
   5              		.eabi_attribute 21, 1
   6              		.eabi_attribute 23, 3
   7              		.eabi_attribute 24, 1
   8              		.eabi_attribute 25, 1
   9              		.eabi_attribute 26, 1
  10              		.eabi_attribute 30, 1
  11              		.eabi_attribute 34, 1
  12              		.eabi_attribute 18, 4
  13              		.file	"TLC5947.c"
  14              		.text
  15              	.Ltext0:
  16              		.cfi_sections	.debug_frame
  17              		.section	.text.writeLEDs,"ax",%progbits
  18              		.align	1
  19              		.global	writeLEDs
  20              		.arch armv7e-m
  21              		.syntax unified
  22              		.thumb
  23              		.thumb_func
  24              		.fpu fpv4-sp-d16
  26              	writeLEDs:
  27              	.LVL0:
  28              	.LFB126:
  29              		.file 1 "Src/TLC5947.c"
   1:Src/TLC5947.c **** #include "TLC5947.h"
   2:Src/TLC5947.c **** 
   3:Src/TLC5947.c **** uint16_t _buffer[NUM_CHANNELS];
   4:Src/TLC5947.c **** 
   5:Src/TLC5947.c **** void writeLEDs(TLC5947 *pins) {
  30              		.loc 1 5 31 view -0
  31              		.cfi_startproc
  32              		@ args = 0, pretend = 0, frame = 0
  33              		@ frame_needed = 0, uses_anonymous_args = 0
  34              		.loc 1 5 31 is_stmt 0 view .LVU1
  35 0000 70B5     		push	{r4, r5, r6, lr}
  36              	.LCFI0:
  37              		.cfi_def_cfa_offset 16
  38              		.cfi_offset 4, -16
  39              		.cfi_offset 5, -12
  40              		.cfi_offset 6, -8
  41              		.cfi_offset 14, -4
  42 0002 0546     		mov	r5, r0
   6:Src/TLC5947.c ****   HAL_GPIO_WritePin(pins->_lat_port, pins->_lat, GPIO_PIN_RESET);
  43              		.loc 1 6 3 is_stmt 1 view .LVU2
  44 0004 0022     		movs	r2, #0
  45 0006 0188     		ldrh	r1, [r0]
  46 0008 8068     		ldr	r0, [r0, #8]
  47              	.LVL1:
  48              		.loc 1 6 3 is_stmt 0 view .LVU3
  49 000a FFF7FEFF 		bl	HAL_GPIO_WritePin
  50              	.LVL2:
   7:Src/TLC5947.c ****   // 24 Channels per TLC5947, set in NUM_CHANNELS
   8:Src/TLC5947.c ****   for (int16_t channel = NUM_CHANNELS - 1; channel >= 0; channel--) {
ARM GAS  /var/folders/hg/yd2wmrcs4nb8mlpb2c051fww0000gn/T//ccxSF6k8.s 			page 2


  51              		.loc 1 8 3 is_stmt 1 view .LVU4
  52              	.LBB2:
  53              		.loc 1 8 8 view .LVU5
  54              		.loc 1 8 16 is_stmt 0 view .LVU6
  55 000e 1726     		movs	r6, #23
  56              		.loc 1 8 3 view .LVU7
  57 0010 21E0     		b	.L2
  58              	.LVL3:
  59              	.L3:
  60              	.LBB3:
   9:Src/TLC5947.c ****     // 12 bits per channel, send MSB first
  10:Src/TLC5947.c ****     for (int8_t brightness = 11; brightness >= 0; brightness--) {
  11:Src/TLC5947.c ****       HAL_GPIO_WritePin(pins->_clk_port, pins->_clk, GPIO_PIN_RESET);
  12:Src/TLC5947.c ****       if (_buffer[channel] & (1 << brightness))
  13:Src/TLC5947.c ****         HAL_GPIO_WritePin(pins->_data_port, pins->_data, GPIO_PIN_SET);
  14:Src/TLC5947.c ****       else
  15:Src/TLC5947.c ****         HAL_GPIO_WritePin(pins->_data_port, pins->_data, GPIO_PIN_RESET);
  61              		.loc 1 15 9 is_stmt 1 view .LVU8
  62 0012 0022     		movs	r2, #0
  63 0014 A988     		ldrh	r1, [r5, #4]
  64 0016 2869     		ldr	r0, [r5, #16]
  65 0018 FFF7FEFF 		bl	HAL_GPIO_WritePin
  66              	.LVL4:
  67              	.L4:
  16:Src/TLC5947.c **** 
  17:Src/TLC5947.c ****       HAL_GPIO_WritePin(pins->_clk_port, pins->_clk, GPIO_PIN_SET);
  68              		.loc 1 17 7 discriminator 2 view .LVU9
  69 001c 0122     		movs	r2, #1
  70 001e 6988     		ldrh	r1, [r5, #2]
  71 0020 E868     		ldr	r0, [r5, #12]
  72 0022 FFF7FEFF 		bl	HAL_GPIO_WritePin
  73              	.LVL5:
  10:Src/TLC5947.c ****       HAL_GPIO_WritePin(pins->_clk_port, pins->_clk, GPIO_PIN_RESET);
  74              		.loc 1 10 61 is_stmt 0 discriminator 2 view .LVU10
  75 0026 013C     		subs	r4, r4, #1
  76              	.LVL6:
  10:Src/TLC5947.c ****       HAL_GPIO_WritePin(pins->_clk_port, pins->_clk, GPIO_PIN_RESET);
  77              		.loc 1 10 61 discriminator 2 view .LVU11
  78 0028 64B2     		sxtb	r4, r4
  79              	.LVL7:
  80              	.L6:
  10:Src/TLC5947.c ****       HAL_GPIO_WritePin(pins->_clk_port, pins->_clk, GPIO_PIN_RESET);
  81              		.loc 1 10 5 discriminator 1 view .LVU12
  82 002a 002C     		cmp	r4, #0
  83 002c 11DB     		blt	.L9
  11:Src/TLC5947.c ****       if (_buffer[channel] & (1 << brightness))
  84              		.loc 1 11 7 is_stmt 1 view .LVU13
  85 002e 0022     		movs	r2, #0
  86 0030 6988     		ldrh	r1, [r5, #2]
  87 0032 E868     		ldr	r0, [r5, #12]
  88 0034 FFF7FEFF 		bl	HAL_GPIO_WritePin
  89              	.LVL8:
  12:Src/TLC5947.c ****         HAL_GPIO_WritePin(pins->_data_port, pins->_data, GPIO_PIN_SET);
  90              		.loc 1 12 7 view .LVU14
  12:Src/TLC5947.c ****         HAL_GPIO_WritePin(pins->_data_port, pins->_data, GPIO_PIN_SET);
  91              		.loc 1 12 18 is_stmt 0 view .LVU15
  92 0038 114B     		ldr	r3, .L11
ARM GAS  /var/folders/hg/yd2wmrcs4nb8mlpb2c051fww0000gn/T//ccxSF6k8.s 			page 3


  93 003a 33F81630 		ldrh	r3, [r3, r6, lsl #1]
  12:Src/TLC5947.c ****         HAL_GPIO_WritePin(pins->_data_port, pins->_data, GPIO_PIN_SET);
  94              		.loc 1 12 11 view .LVU16
  95 003e 2341     		asrs	r3, r3, r4
  12:Src/TLC5947.c ****         HAL_GPIO_WritePin(pins->_data_port, pins->_data, GPIO_PIN_SET);
  96              		.loc 1 12 10 view .LVU17
  97 0040 13F0010F 		tst	r3, #1
  98 0044 E5D0     		beq	.L3
  13:Src/TLC5947.c ****       else
  99              		.loc 1 13 9 is_stmt 1 view .LVU18
 100 0046 0122     		movs	r2, #1
 101 0048 A988     		ldrh	r1, [r5, #4]
 102 004a 2869     		ldr	r0, [r5, #16]
 103 004c FFF7FEFF 		bl	HAL_GPIO_WritePin
 104              	.LVL9:
 105 0050 E4E7     		b	.L4
 106              	.L9:
  13:Src/TLC5947.c ****       else
 107              		.loc 1 13 9 is_stmt 0 view .LVU19
 108              	.LBE3:
   8:Src/TLC5947.c ****     // 12 bits per channel, send MSB first
 109              		.loc 1 8 65 discriminator 2 view .LVU20
 110 0052 013E     		subs	r6, r6, #1
 111              	.LVL10:
   8:Src/TLC5947.c ****     // 12 bits per channel, send MSB first
 112              		.loc 1 8 65 discriminator 2 view .LVU21
 113 0054 36B2     		sxth	r6, r6
 114              	.LVL11:
 115              	.L2:
   8:Src/TLC5947.c ****     // 12 bits per channel, send MSB first
 116              		.loc 1 8 3 discriminator 1 view .LVU22
 117 0056 002E     		cmp	r6, #0
 118 0058 01DB     		blt	.L10
 119              	.LBB4:
  10:Src/TLC5947.c ****       HAL_GPIO_WritePin(pins->_clk_port, pins->_clk, GPIO_PIN_RESET);
 120              		.loc 1 10 17 view .LVU23
 121 005a 0B24     		movs	r4, #11
 122 005c E5E7     		b	.L6
 123              	.L10:
 124              	.LBE4:
 125              	.LBE2:
  18:Src/TLC5947.c ****     }
  19:Src/TLC5947.c ****   }
  20:Src/TLC5947.c ****   HAL_GPIO_WritePin(pins->_clk_port, pins->_clk, GPIO_PIN_RESET);
 126              		.loc 1 20 3 is_stmt 1 view .LVU24
 127 005e 0022     		movs	r2, #0
 128 0060 6988     		ldrh	r1, [r5, #2]
 129 0062 E868     		ldr	r0, [r5, #12]
 130 0064 FFF7FEFF 		bl	HAL_GPIO_WritePin
 131              	.LVL12:
  21:Src/TLC5947.c ****   HAL_GPIO_WritePin(pins->_lat_port, pins->_lat, GPIO_PIN_SET);
 132              		.loc 1 21 3 view .LVU25
 133 0068 0122     		movs	r2, #1
 134 006a 2988     		ldrh	r1, [r5]
 135 006c A868     		ldr	r0, [r5, #8]
 136 006e FFF7FEFF 		bl	HAL_GPIO_WritePin
 137              	.LVL13:
ARM GAS  /var/folders/hg/yd2wmrcs4nb8mlpb2c051fww0000gn/T//ccxSF6k8.s 			page 4


  22:Src/TLC5947.c ****   HAL_GPIO_WritePin(pins->_lat_port, pins->_lat, GPIO_PIN_RESET);
 138              		.loc 1 22 3 view .LVU26
 139 0072 0022     		movs	r2, #0
 140 0074 2988     		ldrh	r1, [r5]
 141 0076 A868     		ldr	r0, [r5, #8]
 142 0078 FFF7FEFF 		bl	HAL_GPIO_WritePin
 143              	.LVL14:
  23:Src/TLC5947.c **** }
 144              		.loc 1 23 1 is_stmt 0 view .LVU27
 145 007c 70BD     		pop	{r4, r5, r6, pc}
 146              	.LVL15:
 147              	.L12:
 148              		.loc 1 23 1 view .LVU28
 149 007e 00BF     		.align	2
 150              	.L11:
 151 0080 00000000 		.word	_buffer
 152              		.cfi_endproc
 153              	.LFE126:
 155              		.section	.text.setLEDBrightness,"ax",%progbits
 156              		.align	1
 157              		.global	setLEDBrightness
 158              		.syntax unified
 159              		.thumb
 160              		.thumb_func
 161              		.fpu fpv4-sp-d16
 163              	setLEDBrightness:
 164              	.LVL16:
 165              	.LFB127:
  24:Src/TLC5947.c **** 
  25:Src/TLC5947.c **** void setLEDBrightness(uint16_t led, uint16_t value) {
 166              		.loc 1 25 53 is_stmt 1 view -0
 167              		.cfi_startproc
 168              		@ args = 0, pretend = 0, frame = 0
 169              		@ frame_needed = 0, uses_anonymous_args = 0
 170              		@ link register save eliminated.
  26:Src/TLC5947.c ****   if (value > 4095)
 171              		.loc 1 26 3 view .LVU30
 172              		.loc 1 26 6 is_stmt 0 view .LVU31
 173 0000 B1F5805F 		cmp	r1, #4096
 174 0004 01D3     		bcc	.L14
  27:Src/TLC5947.c ****     value = 4095;
 175              		.loc 1 27 11 view .LVU32
 176 0006 40F6FF71 		movw	r1, #4095
 177              	.LVL17:
 178              	.L14:
  28:Src/TLC5947.c ****   if (led > NUM_CHANNELS)
 179              		.loc 1 28 3 is_stmt 1 view .LVU33
 180              		.loc 1 28 6 is_stmt 0 view .LVU34
 181 000a 1828     		cmp	r0, #24
 182 000c 02D8     		bhi	.L13
  29:Src/TLC5947.c ****     return;
  30:Src/TLC5947.c ****   _buffer[led] = value;
 183              		.loc 1 30 3 is_stmt 1 view .LVU35
 184              		.loc 1 30 16 is_stmt 0 view .LVU36
 185 000e 024B     		ldr	r3, .L17
 186 0010 23F81010 		strh	r1, [r3, r0, lsl #1]	@ movhi
 187              	.L13:
ARM GAS  /var/folders/hg/yd2wmrcs4nb8mlpb2c051fww0000gn/T//ccxSF6k8.s 			page 5


  31:Src/TLC5947.c **** }
 188              		.loc 1 31 1 view .LVU37
 189 0014 7047     		bx	lr
 190              	.L18:
 191 0016 00BF     		.align	2
 192              	.L17:
 193 0018 00000000 		.word	_buffer
 194              		.cfi_endproc
 195              	.LFE127:
 197              		.section	.text.clearLEDs,"ax",%progbits
 198              		.align	1
 199              		.global	clearLEDs
 200              		.syntax unified
 201              		.thumb
 202              		.thumb_func
 203              		.fpu fpv4-sp-d16
 205              	clearLEDs:
 206              	.LFB128:
  32:Src/TLC5947.c **** 
  33:Src/TLC5947.c **** void clearLEDs() {
 207              		.loc 1 33 18 is_stmt 1 view -0
 208              		.cfi_startproc
 209              		@ args = 0, pretend = 0, frame = 0
 210              		@ frame_needed = 0, uses_anonymous_args = 0
 211              		@ link register save eliminated.
  34:Src/TLC5947.c ****   for (int i = 0; i < NUM_CHANNELS; i++) {
 212              		.loc 1 34 3 view .LVU39
 213              	.LBB5:
 214              		.loc 1 34 8 view .LVU40
 215              	.LVL18:
 216              		.loc 1 34 12 is_stmt 0 view .LVU41
 217 0000 0023     		movs	r3, #0
 218              	.LVL19:
 219              	.L20:
 220              		.loc 1 34 3 discriminator 1 view .LVU42
 221 0002 172B     		cmp	r3, #23
 222 0004 05DC     		bgt	.L22
  35:Src/TLC5947.c ****     _buffer[i] = 0;
 223              		.loc 1 35 5 is_stmt 1 discriminator 3 view .LVU43
 224              		.loc 1 35 16 is_stmt 0 discriminator 3 view .LVU44
 225 0006 034A     		ldr	r2, .L23
 226 0008 0021     		movs	r1, #0
 227 000a 22F81310 		strh	r1, [r2, r3, lsl #1]	@ movhi
  34:Src/TLC5947.c ****   for (int i = 0; i < NUM_CHANNELS; i++) {
 228              		.loc 1 34 38 discriminator 3 view .LVU45
 229 000e 0133     		adds	r3, r3, #1
 230              	.LVL20:
  34:Src/TLC5947.c ****   for (int i = 0; i < NUM_CHANNELS; i++) {
 231              		.loc 1 34 38 discriminator 3 view .LVU46
 232 0010 F7E7     		b	.L20
 233              	.L22:
  34:Src/TLC5947.c ****   for (int i = 0; i < NUM_CHANNELS; i++) {
 234              		.loc 1 34 38 discriminator 3 view .LVU47
 235              	.LBE5:
  36:Src/TLC5947.c ****   }
  37:Src/TLC5947.c **** }
 236              		.loc 1 37 1 view .LVU48
ARM GAS  /var/folders/hg/yd2wmrcs4nb8mlpb2c051fww0000gn/T//ccxSF6k8.s 			page 6


 237 0012 7047     		bx	lr
 238              	.L24:
 239              		.align	2
 240              	.L23:
 241 0014 00000000 		.word	_buffer
 242              		.cfi_endproc
 243              	.LFE128:
 245              		.section	.text.setAllLEDBrightness,"ax",%progbits
 246              		.align	1
 247              		.global	setAllLEDBrightness
 248              		.syntax unified
 249              		.thumb
 250              		.thumb_func
 251              		.fpu fpv4-sp-d16
 253              	setAllLEDBrightness:
 254              	.LVL21:
 255              	.LFB129:
  38:Src/TLC5947.c **** 
  39:Src/TLC5947.c **** void setAllLEDBrightness(uint16_t value) {
 256              		.loc 1 39 42 is_stmt 1 view -0
 257              		.cfi_startproc
 258              		@ args = 0, pretend = 0, frame = 0
 259              		@ frame_needed = 0, uses_anonymous_args = 0
 260              		@ link register save eliminated.
  40:Src/TLC5947.c ****   for (int i = 0; i < NUM_CHANNELS; i++) {
 261              		.loc 1 40 3 view .LVU50
 262              	.LBB6:
 263              		.loc 1 40 8 view .LVU51
 264              		.loc 1 40 12 is_stmt 0 view .LVU52
 265 0000 0023     		movs	r3, #0
 266              		.loc 1 40 3 view .LVU53
 267 0002 03E0     		b	.L26
 268              	.LVL22:
 269              	.L27:
  41:Src/TLC5947.c ****     if (value > 4095)
  42:Src/TLC5947.c ****       value = 4095;
  43:Src/TLC5947.c ****     _buffer[i] = value;
 270              		.loc 1 43 5 is_stmt 1 discriminator 2 view .LVU54
 271              		.loc 1 43 16 is_stmt 0 discriminator 2 view .LVU55
 272 0004 064A     		ldr	r2, .L31
 273 0006 22F81300 		strh	r0, [r2, r3, lsl #1]	@ movhi
  40:Src/TLC5947.c ****   for (int i = 0; i < NUM_CHANNELS; i++) {
 274              		.loc 1 40 38 discriminator 2 view .LVU56
 275 000a 0133     		adds	r3, r3, #1
 276              	.LVL23:
 277              	.L26:
  40:Src/TLC5947.c ****   for (int i = 0; i < NUM_CHANNELS; i++) {
 278              		.loc 1 40 3 discriminator 1 view .LVU57
 279 000c 172B     		cmp	r3, #23
 280 000e 05DC     		bgt	.L30
  41:Src/TLC5947.c ****     if (value > 4095)
 281              		.loc 1 41 5 is_stmt 1 view .LVU58
  41:Src/TLC5947.c ****     if (value > 4095)
 282              		.loc 1 41 8 is_stmt 0 view .LVU59
 283 0010 B0F5805F 		cmp	r0, #4096
 284 0014 F6D3     		bcc	.L27
  42:Src/TLC5947.c ****     _buffer[i] = value;
ARM GAS  /var/folders/hg/yd2wmrcs4nb8mlpb2c051fww0000gn/T//ccxSF6k8.s 			page 7


 285              		.loc 1 42 13 view .LVU60
 286 0016 40F6FF70 		movw	r0, #4095
 287              	.LVL24:
  42:Src/TLC5947.c ****     _buffer[i] = value;
 288              		.loc 1 42 13 view .LVU61
 289 001a F3E7     		b	.L27
 290              	.LVL25:
 291              	.L30:
  42:Src/TLC5947.c ****     _buffer[i] = value;
 292              		.loc 1 42 13 view .LVU62
 293              	.LBE6:
  44:Src/TLC5947.c ****   }
  45:Src/TLC5947.c **** }...
 294              		.loc 1 45 1 view .LVU63
 295 001c 7047     		bx	lr
 296              	.L32:
 297 001e 00BF     		.align	2
 298              	.L31:
 299 0020 00000000 		.word	_buffer
 300              		.cfi_endproc
 301              	.LFE129:
 303              		.comm	_buffer,48,4
 304              		.text
 305              	.Letext0:
 306              		.file 2 "/usr/local/gcc_arm/arm-none-eabi/include/machine/_default_types.h"
 307              		.file 3 "/usr/local/gcc_arm/arm-none-eabi/include/sys/lock.h"
 308              		.file 4 "/usr/local/gcc_arm/arm-none-eabi/include/sys/_types.h"
 309              		.file 5 "/usr/local/gcc_arm/lib/gcc/arm-none-eabi/8.2.1/include/stddef.h"
 310              		.file 6 "/usr/local/gcc_arm/arm-none-eabi/include/sys/reent.h"
 311              		.file 7 "/usr/local/gcc_arm/arm-none-eabi/include/stdlib.h"
 312              		.file 8 "/usr/local/gcc_arm/arm-none-eabi/include/sys/_stdint.h"
 313              		.file 9 "Drivers/CMSIS/Include/core_cm4.h"
 314              		.file 10 "Drivers/CMSIS/Device/ST/STM32F3xx/Include/system_stm32f3xx.h"
 315              		.file 11 "Drivers/CMSIS/Device/ST/STM32F3xx/Include/stm32f303xc.h"
 316              		.file 12 "Drivers/STM32F3xx_HAL_Driver/Inc/stm32f3xx_hal_gpio.h"
 317              		.file 13 "Drivers/STM32F3xx_HAL_Driver/Inc/stm32f3xx_hal.h"
 318              		.file 14 "Inc/TLC5947.h"
ARM GAS  /var/folders/hg/yd2wmrcs4nb8mlpb2c051fww0000gn/T//ccxSF6k8.s 			page 8

